
303_group_23_assignment_1.elf:     file format elf32-littlenios2
303_group_23_assignment_1.elf
architecture: nios2:r1, flags 0x00000112:
EXEC_P, HAS_SYMS, D_PAGED
start address 0x00800244

Program Header:
    LOAD off    0x00001000 vaddr 0x00800000 paddr 0x00800000 align 2**12
         filesz 0x00000020 memsz 0x00000020 flags r-x
    LOAD off    0x00001020 vaddr 0x00800020 paddr 0x00800020 align 2**12
         filesz 0x00013898 memsz 0x00013898 flags r-x
    LOAD off    0x000148b8 vaddr 0x008138b8 paddr 0x008155b0 align 2**12
         filesz 0x00001cf8 memsz 0x00001cf8 flags rw-
    LOAD off    0x000172a8 vaddr 0x008172a8 paddr 0x008172a8 align 2**12
         filesz 0x00000000 memsz 0x000001a8 flags rw-

Sections:
Idx Name          Size      VMA       LMA       File off  Algn
  0 .entry        00000020  00800000  00800000  00001000  2**5
                  CONTENTS, ALLOC, LOAD, READONLY, CODE
  1 .exceptions   00000224  00800020  00800020  00001020  2**2
                  CONTENTS, ALLOC, LOAD, READONLY, CODE
  2 .text         00012e2c  00800244  00800244  00001244  2**2
                  CONTENTS, ALLOC, LOAD, READONLY, CODE
  3 .rodata       00000848  00813070  00813070  00014070  2**2
                  CONTENTS, ALLOC, LOAD, READONLY, DATA
  4 .rwdata       00001cf8  008138b8  008155b0  000148b8  2**2
                  CONTENTS, ALLOC, LOAD, DATA, SMALL_DATA
  5 .bss          000001a8  008172a8  008172a8  000172a8  2**2
                  ALLOC, SMALL_DATA
  6 .sdram        00000000  00817450  00817450  000165b0  2**0
                  CONTENTS
  7 .onchip_mem   00000000  01080000  01080000  000165b0  2**0
                  CONTENTS
  8 .comment      00000023  00000000  00000000  000165b0  2**0
                  CONTENTS, READONLY
  9 .debug_aranges 00001280  00000000  00000000  000165d8  2**3
                  CONTENTS, READONLY, DEBUGGING
 10 .debug_info   000302de  00000000  00000000  00017858  2**0
                  CONTENTS, READONLY, DEBUGGING
 11 .debug_abbrev 0000c1cc  00000000  00000000  00047b36  2**0
                  CONTENTS, READONLY, DEBUGGING
 12 .debug_line   0000e913  00000000  00000000  00053d02  2**0
                  CONTENTS, READONLY, DEBUGGING
 13 .debug_frame  00002b50  00000000  00000000  00062618  2**2
                  CONTENTS, READONLY, DEBUGGING
 14 .debug_str    0000455e  00000000  00000000  00065168  2**0
                  CONTENTS, READONLY, DEBUGGING
 15 .debug_loc    00019296  00000000  00000000  000696c6  2**0
                  CONTENTS, READONLY, DEBUGGING
 16 .debug_alt_sim_info 00000060  00000000  00000000  0008295c  2**2
                  CONTENTS, READONLY, DEBUGGING
 17 .debug_ranges 00001b30  00000000  00000000  000829c0  2**3
                  CONTENTS, READONLY, DEBUGGING
 18 .thread_model 00000003  00000000  00000000  000883d9  2**0
                  CONTENTS, READONLY
 19 .cpu          00000003  00000000  00000000  000883dc  2**0
                  CONTENTS, READONLY
 20 .qsys         00000001  00000000  00000000  000883df  2**0
                  CONTENTS, READONLY
 21 .simulation_enabled 00000001  00000000  00000000  000883e0  2**0
                  CONTENTS, READONLY
 22 .sysid_hash   00000004  00000000  00000000  000883e1  2**0
                  CONTENTS, READONLY
 23 .sysid_base   00000004  00000000  00000000  000883e5  2**0
                  CONTENTS, READONLY
 24 .sysid_time   00000004  00000000  00000000  000883e9  2**0
                  CONTENTS, READONLY
 25 .stderr_dev   00000009  00000000  00000000  000883ed  2**0
                  CONTENTS, READONLY
 26 .stdin_dev    00000009  00000000  00000000  000883f6  2**0
                  CONTENTS, READONLY
 27 .stdout_dev   00000009  00000000  00000000  000883ff  2**0
                  CONTENTS, READONLY
 28 .sopc_system_name 0000000c  00000000  00000000  00088408  2**0
                  CONTENTS, READONLY
 29 .quartus_project_dir 00000009  00000000  00000000  00088414  2**0
                  CONTENTS, READONLY
 30 .sopcinfo     0006b318  00000000  00000000  0008841d  2**0
                  CONTENTS, READONLY
SYMBOL TABLE:
00800000 l    d  .entry	00000000 .entry
00800020 l    d  .exceptions	00000000 .exceptions
00800244 l    d  .text	00000000 .text
00813070 l    d  .rodata	00000000 .rodata
008138b8 l    d  .rwdata	00000000 .rwdata
008172a8 l    d  .bss	00000000 .bss
00817450 l    d  .sdram	00000000 .sdram
01080000 l    d  .onchip_mem	00000000 .onchip_mem
00000000 l    d  .comment	00000000 .comment
00000000 l    d  .debug_aranges	00000000 .debug_aranges
00000000 l    d  .debug_info	00000000 .debug_info
00000000 l    d  .debug_abbrev	00000000 .debug_abbrev
00000000 l    d  .debug_line	00000000 .debug_line
00000000 l    d  .debug_frame	00000000 .debug_frame
00000000 l    d  .debug_str	00000000 .debug_str
00000000 l    d  .debug_loc	00000000 .debug_loc
00000000 l    d  .debug_alt_sim_info	00000000 .debug_alt_sim_info
00000000 l    d  .debug_ranges	00000000 .debug_ranges
00000000 l    df *ABS*	00000000 ../303_group_23_assignment_1_bsp//obj/HAL/src/crt0.o
0080028c l       .text	00000000 alt_after_alt_main
00000000 l    df *ABS*	00000000 alt_irq_handler.c
00000000 l    df *ABS*	00000000 alt_instruction_exception_entry.c
00000000 l    df *ABS*	00000000 main.c
00000000 l    df *ABS*	00000000 divdf3.c
00000000 l    df *ABS*	00000000 floatsidf.c
00000000 l    df *ABS*	00000000 libgcc2.c
00000000 l    df *ABS*	00000000 lib2-divmod.c
00000000 l    df *ABS*	00000000 libgcc2.c
00000000 l    df *ABS*	00000000 atoi.c
00000000 l    df *ABS*	00000000 fclose.c
00000000 l    df *ABS*	00000000 fflush.c
00000000 l    df *ABS*	00000000 fgetc.c
00000000 l    df *ABS*	00000000 findfp.c
008024a0 l     F .text	00000008 __fp_unlock
008024b4 l     F .text	0000019c __sinit.part.1
00802650 l     F .text	00000008 __fp_lock
00000000 l    df *ABS*	00000000 fopen.c
00000000 l    df *ABS*	00000000 fprintf.c
00000000 l    df *ABS*	00000000 fputc.c
00000000 l    df *ABS*	00000000 mallocr.c
00000000 l    df *ABS*	00000000 fseek.c
00000000 l    df *ABS*	00000000 fseeko.c
00000000 l    df *ABS*	00000000 fstatr.c
00000000 l    df *ABS*	00000000 fwalk.c
00000000 l    df *ABS*	00000000 fwrite.c
00000000 l    df *ABS*	00000000 impure.c
008138b8 l     O .rwdata	00000424 impure_data
00000000 l    df *ABS*	00000000 int_errno.c
00000000 l    df *ABS*	00000000 makebuf.c
00000000 l    df *ABS*	00000000 mallocr.c
00000000 l    df *ABS*	00000000 memcpy.c
00000000 l    df *ABS*	00000000 memset.c
00000000 l    df *ABS*	00000000 openr.c
00000000 l    df *ABS*	00000000 printf.c
00000000 l    df *ABS*	00000000 putc.c
00000000 l    df *ABS*	00000000 putchar.c
00000000 l    df *ABS*	00000000 puts.c
00000000 l    df *ABS*	00000000 refill.c
00804530 l     F .text	0000001c lflush
00000000 l    df *ABS*	00000000 rget.c
00000000 l    df *ABS*	00000000 sbrkr.c
00000000 l    df *ABS*	00000000 stdio.c
00000000 l    df *ABS*	00000000 strlen.c
00000000 l    df *ABS*	00000000 strtok.c
00000000 l    df *ABS*	00000000 strtok_r.c
00000000 l    df *ABS*	00000000 strtol.c
00000000 l    df *ABS*	00000000 vfprintf.c
00813472 l     O .rodata	00000010 zeroes.4404
00806ef4 l     F .text	000000bc __sbprintf
00813482 l     O .rodata	00000010 blanks.4403
00000000 l    df *ABS*	00000000 wbuf.c
00000000 l    df *ABS*	00000000 writer.c
00000000 l    df *ABS*	00000000 wsetup.c
00000000 l    df *ABS*	00000000 closer.c
00000000 l    df *ABS*	00000000 ctype_.c
00813593 l     O .rodata	00000180 _ctype_b
00000000 l    df *ABS*	00000000 dtoa.c
00807310 l     F .text	00000200 quorem
00000000 l    df *ABS*	00000000 flags.c
00000000 l    df *ABS*	00000000 fvwrite.c
00000000 l    df *ABS*	00000000 isattyr.c
00000000 l    df *ABS*	00000000 locale.c
00814104 l     O .rwdata	00000020 lc_ctype_charset
008140e4 l     O .rwdata	00000020 lc_message_charset
00814124 l     O .rwdata	00000038 lconv
00000000 l    df *ABS*	00000000 lseekr.c
00000000 l    df *ABS*	00000000 memchr.c
00000000 l    df *ABS*	00000000 memmove.c
00000000 l    df *ABS*	00000000 mprec.c
00813730 l     O .rodata	0000000c p05.2768
00000000 l    df *ABS*	00000000 readr.c
00000000 l    df *ABS*	00000000 mallocr.c
00000000 l    df *ABS*	00000000 s_fpclassify.c
00000000 l    df *ABS*	00000000 strcmp.c
00000000 l    df *ABS*	00000000 vfprintf.c
0080abe0 l     F .text	000000fc __sprint_r.part.0
00813864 l     O .rodata	00000010 blanks.4348
00813854 l     O .rodata	00000010 zeroes.4349
0080c16c l     F .text	000000bc __sbprintf
00000000 l    df *ABS*	00000000 mallocr.c
00000000 l    df *ABS*	00000000 fputwc.c
00000000 l    df *ABS*	00000000 wcrtomb.c
00000000 l    df *ABS*	00000000 wctomb_r.c
00000000 l    df *ABS*	00000000 libgcc2.c
00000000 l    df *ABS*	00000000 libgcc2.c
00000000 l    df *ABS*	00000000 adddf3.c
00000000 l    df *ABS*	00000000 eqdf2.c
00000000 l    df *ABS*	00000000 gedf2.c
00000000 l    df *ABS*	00000000 ledf2.c
00000000 l    df *ABS*	00000000 muldf3.c
00000000 l    df *ABS*	00000000 subdf3.c
00000000 l    df *ABS*	00000000 fixdfsi.c
00000000 l    df *ABS*	00000000 floatunsidf.c
00000000 l    df *ABS*	00000000 alt_alarm_start.c
00000000 l    df *ABS*	00000000 alt_close.c
0080eef8 l     F .text	0000003c alt_get_errno
00000000 l    df *ABS*	00000000 alt_dev.c
0080f004 l     F .text	0000002c alt_dev_null_write
00000000 l    df *ABS*	00000000 alt_errno.c
00000000 l    df *ABS*	00000000 alt_fstat.c
0080f030 l     F .text	0000003c alt_get_errno
00000000 l    df *ABS*	00000000 alt_irq_register.c
00000000 l    df *ABS*	00000000 alt_irq_vars.c
00000000 l    df *ABS*	00000000 alt_isatty.c
0080f29c l     F .text	0000003c alt_get_errno
00000000 l    df *ABS*	00000000 alt_load.c
0080f37c l     F .text	00000068 alt_load_section
00000000 l    df *ABS*	00000000 alt_lseek.c
0080f468 l     F .text	0000003c alt_get_errno
00000000 l    df *ABS*	00000000 alt_main.c
00000000 l    df *ABS*	00000000 alt_malloc_lock.c
00000000 l    df *ABS*	00000000 alt_open.c
0080f63c l     F .text	0000003c alt_get_errno
0080f678 l     F .text	000000c4 alt_file_locked
00000000 l    df *ABS*	00000000 alt_read.c
0080f890 l     F .text	0000003c alt_get_errno
00000000 l    df *ABS*	00000000 alt_release_fd.c
00000000 l    df *ABS*	00000000 alt_sbrk.c
008155a0 l     O .rwdata	00000004 heap_end
00000000 l    df *ABS*	00000000 alt_tick.c
00000000 l    df *ABS*	00000000 alt_write.c
0080fc80 l     F .text	0000003c alt_get_errno
00000000 l    df *ABS*	00000000 alt_sys_init.c
0080fdb4 l     F .text	00000034 alt_dev_reg
00814304 l     O .rwdata	00001060 jtag_uart
00815364 l     O .rwdata	00000120 lcd
00815484 l     O .rwdata	000000c4 uart
00000000 l    df *ABS*	00000000 altera_avalon_jtag_uart_fd.c
00000000 l    df *ABS*	00000000 altera_avalon_jtag_uart_init.c
008100e0 l     F .text	0000020c altera_avalon_jtag_uart_irq
008102ec l     F .text	000000a0 altera_avalon_jtag_uart_timeout
00000000 l    df *ABS*	00000000 altera_avalon_jtag_uart_ioctl.c
00000000 l    df *ABS*	00000000 altera_avalon_jtag_uart_read.c
00000000 l    df *ABS*	00000000 altera_avalon_jtag_uart_write.c
00000000 l    df *ABS*	00000000 altera_avalon_lcd_16207.c
008155ac l     O .rwdata	00000004 colstart
00810924 l     F .text	000000b8 lcd_write_command
008109dc l     F .text	000000d8 lcd_write_data
00810ab4 l     F .text	000000d0 lcd_clear_screen
00810b84 l     F .text	000001ec lcd_repaint_screen
00810d70 l     F .text	000000cc lcd_scroll_up
00810e3c l     F .text	000002ac lcd_handle_escape
008115c0 l     F .text	000000ac alt_lcd_16207_timeout
00000000 l    df *ABS*	00000000 altera_avalon_lcd_16207_fd.c
00000000 l    df *ABS*	00000000 altera_avalon_timer_sc.c
00811800 l     F .text	00000078 alt_avalon_timer_sc_irq
00000000 l    df *ABS*	00000000 altera_avalon_uart_fd.c
00000000 l    df *ABS*	00000000 altera_avalon_uart_init.c
00811ab0 l     F .text	0000009c altera_avalon_uart_irq
00811b4c l     F .text	000000e4 altera_avalon_uart_rxirq
00811c30 l     F .text	00000148 altera_avalon_uart_txirq
00000000 l    df *ABS*	00000000 altera_avalon_uart_read.c
00811dcc l     F .text	0000003c alt_get_errno
00000000 l    df *ABS*	00000000 altera_avalon_uart_write.c
00811fe4 l     F .text	0000003c alt_get_errno
00000000 l    df *ABS*	00000000 alt_dcache_flush_all.c
00000000 l    df *ABS*	00000000 alt_dev_llist_insert.c
00812214 l     F .text	0000003c alt_get_errno
00000000 l    df *ABS*	00000000 alt_do_ctors.c
00000000 l    df *ABS*	00000000 alt_do_dtors.c
00000000 l    df *ABS*	00000000 alt_find_dev.c
00000000 l    df *ABS*	00000000 alt_find_file.c
00000000 l    df *ABS*	00000000 alt_get_fd.c
00000000 l    df *ABS*	00000000 alt_icache_flush_all.c
00000000 l    df *ABS*	00000000 alt_iic.c
00000000 l    df *ABS*	00000000 alt_iic_isr_register.c
00000000 l    df *ABS*	00000000 alt_io_redirect.c
008128c4 l     F .text	000000c4 alt_open_fd
00000000 l    df *ABS*	00000000 alt_usleep.c
00000000 l    df *ABS*	00000000 altera_nios2_gen2_irq.c
00000000 l    df *ABS*	00000000 alt_busy_sleep.c
00000000 l    df *ABS*	00000000 alt_icache_flush.c
00000000 l    df *ABS*	00000000 atexit.c
00000000 l    df *ABS*	00000000 exit.c
00000000 l    df *ABS*	00000000 memcmp.c
00000000 l    df *ABS*	00000000 __atexit.c
00000000 l    df *ABS*	00000000 __call_atexit.c
00000000 l    df *ABS*	00000000 alt_exit.c
00817324 g     O .bss	00000004 alt_instruction_exception_handler
00804444 g     F .text	00000018 putchar
0080a354 g     F .text	00000074 _mprec_log10
0080a440 g     F .text	0000008c __any_on
00809100 g     F .text	00000054 _isatty_r
0081373c g     O .rodata	00000028 __mprec_tinytens
0080f578 g     F .text	0000007c alt_main
0080445c g     F .text	000000c0 _puts_r
00815554 g     O .rwdata	00000004 T2
00817350 g     O .bss	00000100 alt_irq
00809230 g     F .text	00000060 _lseek_r
008155b0 g       *ABS*	00000000 __flash_rwdata_start
00808b98 g     F .text	000000ac __sflags
0080da38 g     F .text	00000088 .hidden __eqdf2
008172c0 g     O .bss	00000004 pedEW
00817450 g       *ABS*	00000000 __alt_heap_start
00804a84 g     F .text	00000008 strtok_r
00804298 g     F .text	0000003c printf
0080c4f4 g     F .text	0000009c _wcrtomb_r
008048d4 g     F .text	0000005c __sseek
008027f0 g     F .text	00000010 __sinit
00806fb0 g     F .text	00000140 __swbuf_r
00809154 g     F .text	0000007c _setlocale_r
00802658 g     F .text	00000068 __sfmoreglue
008172dc g     O .bss	00000004 vehicle_in
0080f618 g     F .text	00000024 __malloc_unlock
00809374 g     F .text	0000015c memmove
008027d8 g     F .text	00000018 _cleanup
008094d0 g     F .text	000000a8 _Balloc
008049e8 g     F .text	0000009c __strtok_r
0080dac0 g     F .text	000000dc .hidden __gtdf2
00812a34 g     F .text	00000024 altera_nios2_gen2_irq_init
008172b4 g     O .bss	00000004 NSstate
00800000 g     F .entry	0000001c __reset
0081555c g     O .rwdata	00000004 T4
00800020 g       *ABS*	00000000 __flash_exceptions_start
008032ec g     F .text	0000005c _fstat_r
008172f0 g     O .bss	00000004 errno
00804794 g     F .text	00000014 __srget
00804850 g     F .text	00000008 __seofread
00817314 g     O .bss	00000004 alt_argv
0081d548 g       *ABS*	00000000 _gp
00812a04 g     F .text	00000030 usleep
00815548 g     O .rwdata	00000004 prev_state
00800290 g     F .text	0000002c tlc_timer_isr
00814184 g     O .rwdata	00000180 alt_fd_list
0080443c g     F .text	00000008 _putchar_r
008123b4 g     F .text	00000090 alt_find_dev
00803f98 g     F .text	00000148 memcpy
008002bc g     F .text	0000004c camera_timer_isr
008024a8 g     F .text	0000000c _cleanup_r
00801cf0 g     F .text	000000dc .hidden __floatsidf
00812988 g     F .text	0000007c alt_io_redirect
0080db9c g     F .text	000000f4 .hidden __ltdf2
008172bc g     O .bss	00000004 pedNS
00813070 g       *ABS*	00000000 __DTOR_END__
0080451c g     F .text	00000014 puts
00812c40 g     F .text	0000009c alt_exception_cause_generated_bad_addr
008172e8 g     O .bss	00000004 entered_on_green
0080aa90 g     F .text	00000074 __fpclassifyd
0080a2b0 g     F .text	000000a4 __ratio
0080c150 g     F .text	0000001c __vfiprintf_internal
00800e84 g     F .text	000000b0 pedestrian_tlc
008172ac g     O .bss	00000004 mutex_lock_flag
008104e4 g     F .text	0000021c altera_avalon_jtag_uart_read
00804268 g     F .text	00000030 _printf_r
00801f28 g     F .text	00000064 .hidden __udivsi3
0080f2d8 g     F .text	000000a4 isatty
0081378c g     O .rodata	000000c8 __mprec_tens
008091d0 g     F .text	0000000c __locale_charset
00812bb0 g     F .text	00000090 alt_icache_flush
008172fc g     O .bss	00000004 __malloc_top_pad
0081554c g     O .rwdata	00000004 predef_time
0081557c g     O .rwdata	00000004 __mb_cur_max
008172b8 g     O .bss	00000004 EWstate
00809200 g     F .text	0000000c _localeconv_r
008098dc g     F .text	0000003c __i2b
00808c44 g     F .text	000004bc __sfvwrite_r
00800aa0 g     F .text	000001c4 tlc_state_machine
008047a8 g     F .text	00000054 _sbrk_r
0080a4cc g     F .text	00000060 _read_r
00815560 g     O .rwdata	00000004 T5
00815594 g     O .rwdata	00000004 alt_max_fd
00801ffc g     F .text	000000f0 _fclose_r
00802378 g     F .text	00000030 fflush
008172f8 g     O .bss	00000004 __malloc_max_sbrked_mem
0080f11c g     F .text	00000180 alt_irq_register
008023a8 g     F .text	00000070 _fgetc_r
0080d18c g     F .text	000008ac .hidden __adddf3
0080a058 g     F .text	0000010c __b2d
0080cc54 g     F .text	00000538 .hidden __umoddi3
0080f4a4 g     F .text	000000d4 lseek
00815568 g     O .rwdata	00000004 _global_impure_ptr
0080a52c g     F .text	00000564 _realloc_r
00817450 g       *ABS*	00000000 __bss_end
008127d4 g     F .text	000000f0 alt_iic_isr_register
0080fb78 g     F .text	00000108 alt_tick
0080c6dc g     F .text	00000578 .hidden __udivdi3
0080c450 g     F .text	00000024 _fputwc_r
00813764 g     O .rodata	00000028 __mprec_bigtens
008096c0 g     F .text	00000104 __s2b
0080ed24 g     F .text	000000a8 .hidden __floatunsidf
00809d98 g     F .text	00000060 __mcmp
00811a04 g     F .text	000000ac altera_avalon_uart_init
008172c4 g     O .bss	00000004 NShandled
00802810 g     F .text	00000018 __fp_lock_all
008172e4 g     O .bss	00000004 timer_event
00812788 g     F .text	0000004c alt_ic_irq_enabled
008172a8 g     O .bss	00000004 state
0080fadc g     F .text	0000009c alt_alarm_stop
00804cc4 g     F .text	0000001c strtol
0081730c g     O .bss	00000004 alt_irq_active
00802e8c g     F .text	00000444 _fseeko_r
01080000 g       *ABS*	00000000 __alt_mem_onchip_mem
008000fc g     F .exceptions	000000d4 alt_irq_handler
0081415c g     O .rwdata	00000028 alt_dev_null
008121cc g     F .text	00000048 alt_dcache_flush_all
008097c4 g     F .text	00000068 __hi0bits
0080eca4 g     F .text	00000080 .hidden __fixdfsi
00800d08 g     F .text	000000f8 simple_tlc_leds
008155b0 g       *ABS*	00000000 __ram_rwdata_end
0081558c g     O .rwdata	00000008 alt_dev_list
00802998 g     F .text	00000044 _fputc_r
0080fcbc g     F .text	000000f8 write
008042d4 g     F .text	000000a0 _putc_r
008138b8 g       *ABS*	00000000 __ram_rodata_end
0080f06c g     F .text	000000b0 fstat
00802974 g     F .text	00000024 fprintf
0080db9c g     F .text	000000f4 .hidden __ledf2
00809b10 g     F .text	00000140 __pow5mult
0080acf4 g     F .text	0000145c ___vfiprintf_internal_r
00817308 g     O .bss	00000004 __nlocale_changed
0080093c g     F .text	000000a4 change_mode
00801f8c g     F .text	00000058 .hidden __umodsi3
00817450 g       *ABS*	00000000 end
008110e8 g     F .text	000004d8 altera_avalon_lcd_16207_write
008032d0 g     F .text	0000001c fseeko
008172b0 g     O .bss	00000004 mode
00801ff0 g     F .text	0000000c _atoi_r
00812020 g     F .text	000001ac altera_avalon_uart_write
00802e70 g     F .text	0000001c fseek
008172d0 g     O .bss	00000004 EWraised
00810020 g     F .text	000000c0 altera_avalon_jtag_uart_init
008001d0 g     F .exceptions	00000074 alt_instruction_exception_entry
00815558 g     O .rwdata	00000004 T3
00813070 g       *ABS*	00000000 __CTOR_LIST__
01000000 g       *ABS*	00000000 __alt_stack_pointer
00811878 g     F .text	0000007c alt_avalon_timer_sc_init
00811954 g     F .text	00000060 altera_avalon_uart_write_fd
00801dcc g     F .text	00000064 .hidden __clzsi2
008119b4 g     F .text	00000050 altera_avalon_uart_close_fd
00810700 g     F .text	00000224 altera_avalon_jtag_uart_write
00802800 g     F .text	00000004 __sfp_lock_acquire
00809290 g     F .text	000000e4 memchr
00804ce0 g     F .text	000021f8 ___vfprintf_internal_r
00802b5c g     F .text	00000310 _free_r
008091dc g     F .text	00000010 __locale_mb_cur_max
00812ebc g     F .text	00000180 __call_exitprocs
00804720 g     F .text	00000074 __srget_r
00817304 g     O .bss	00000004 __mlocale_changed
00815570 g     O .rwdata	00000004 __malloc_sbrk_base
00800244 g     F .text	0000004c _start
0081731c g     O .bss	00000004 _alt_tick_rate
00809c50 g     F .text	00000148 __lshift
00817320 g     O .bss	00000004 _alt_nticks
0080f8cc g     F .text	000000fc read
0080fe20 g     F .text	0000009c alt_sys_init
00804208 g     F .text	00000060 _open_r
00812da4 g     F .text	00000118 __register_exitproc
00809918 g     F .text	000001f8 __multiply
0081038c g     F .text	00000068 altera_avalon_jtag_uart_close
008138b8 g       *ABS*	00000000 __ram_rwdata_start
00813070 g       *ABS*	00000000 __ram_rodata_start
00817328 g     O .bss	00000028 __malloc_current_mallinfo
0080a164 g     F .text	0000014c __d2b
0080febc g     F .text	00000060 altera_avalon_jtag_uart_read_fd
0081254c g     F .text	000000a4 alt_get_fd
00812a58 g     F .text	00000158 alt_busy_sleep
008072bc g     F .text	00000054 _close_r
008049d0 g     F .text	00000018 strtok
00812d28 g     F .text	0000007c memcmp
0080ff7c g     F .text	00000050 altera_avalon_jtag_uart_close_fd
00817450 g       *ABS*	00000000 __alt_stack_base
0080ffcc g     F .text	00000054 altera_avalon_jtag_uart_ioctl_fd
008034d0 g     F .text	000000cc _fwrite_r
00807168 g     F .text	00000154 __swsetup_r
00801408 g     F .text	000008e8 .hidden __divdf3
008026c0 g     F .text	00000118 __sfp
0080a3c8 g     F .text	00000078 __copybits
00813cdc g     O .rwdata	00000408 __malloc_av_
0080280c g     F .text	00000004 __sinit_lock_release
0080dc90 g     F .text	00000718 .hidden __muldf3
008047fc g     F .text	00000054 __sread
00812444 g     F .text	00000108 alt_find_file
00812250 g     F .text	000000a4 alt_dev_llist_insert
0080f5f4 g     F .text	00000024 __malloc_lock
0080294c g     F .text	00000028 _fprintf_r
0080fa2c g     F .text	000000b0 sbrk
0080231c g     F .text	0000005c _fflush_r
0080c228 g     F .text	000000c4 _calloc_r
00802934 g     F .text	00000018 fopen
008172a8 g       *ABS*	00000000 __bss_start
008040e0 g     F .text	00000128 memset
00800408 g     F .text	00000534 main
00817318 g     O .bss	00000004 alt_envp
008172f4 g     O .bss	00000004 __malloc_max_total_mem
00815550 g     O .rwdata	00000004 T1
0080ff1c g     F .text	00000060 altera_avalon_jtag_uart_write_fd
008070f0 g     F .text	00000018 __swbuf
0081166c g     F .text	00000134 altera_avalon_lcd_16207_init
00804930 g     F .text	00000008 __sclose
01000000 g       *ABS*	00000000 __alt_heap_limit
008020ec g     F .text	00000014 fclose
008172ec g     O .bss	00000004 timeout_set
00804a8c g     F .text	00000238 _strtol_r
00807510 g     F .text	00001688 _dtoa_r
0080378c g     F .text	0000080c _malloc_r
0080c650 g     F .text	00000030 __ascii_wctomb
00815564 g     O .rwdata	00000004 T6
008172cc g     O .bss	00000004 NSraised
00815598 g     O .rwdata	00000004 alt_errno
00803348 g     F .text	000000c4 _fwalk
00804374 g     F .text	000000c8 putc
00801e30 g     F .text	00000084 .hidden __divsi3
00802a38 g     F .text	00000124 _malloc_trim_r
00813070 g       *ABS*	00000000 __CTOR_END__
00800c64 g     F .text	000000a4 switch_read_mode
0080ab04 g     F .text	000000dc strcmp
00813070 g       *ABS*	00000000 __flash_rodata_start
008009e0 g     F .text	000000c0 lcd_mode
00813070 g       *ABS*	00000000 __DTOR_LIST__
0080da38 g     F .text	00000088 .hidden __nedf2
0080fde8 g     F .text	00000038 alt_irq_init
0080f9c8 g     F .text	00000064 alt_release_fd
00802418 g     F .text	00000088 fgetc
00813326 g     O .rodata	00000100 .hidden __clz_tab
00817300 g     O .bss	00000004 _PathLocale
00812cdc g     F .text	00000014 atexit
00807108 g     F .text	00000060 _write_r
0080920c g     F .text	00000018 setlocale
0081556c g     O .rwdata	00000004 _impure_ptr
00817310 g     O .bss	00000004 alt_argc
00802100 g     F .text	0000021c __sflush_r
00812354 g     F .text	00000060 _do_dtors
008091f8 g     F .text	00000008 __locale_cjk_lang
00802e6c g     F .text	00000004 _fseek_r
00800f34 g     F .text	00000384 timeout_data_handler
0080454c g     F .text	000001d4 __srefill_r
00800020 g       .exceptions	00000000 alt_irq_entry
00809ff4 g     F .text	00000064 __ulp
00802828 g     F .text	00000018 __fp_unlock_all
008117a0 g     F .text	00000060 altera_avalon_lcd_16207_write_fd
008029dc g     F .text	0000005c fputc
00815584 g     O .rwdata	00000008 alt_fs_list
00800020 g       *ABS*	00000000 __ram_exceptions_start
00809224 g     F .text	0000000c localeconv
00800308 g     F .text	00000100 button_isr
00812624 g     F .text	00000050 alt_ic_isr_register
0080359c g     F .text	00000034 fwrite
008155b0 g       *ABS*	00000000 _edata
008118f4 g     F .text	00000060 altera_avalon_uart_read_fd
00817450 g       *ABS*	00000000 _end
0080c2ec g     F .text	00000164 __fputwc
00800244 g       *ABS*	00000000 __ram_exceptions_end
008103f4 g     F .text	000000f0 altera_avalon_jtag_uart_ioctl
008126fc g     F .text	0000008c alt_ic_irq_disable
00804858 g     F .text	0000007c __swrite
008012b8 g     F .text	00000150 camera_uart
00815574 g     O .rwdata	00000004 __malloc_trim_threshold
008091ec g     F .text	0000000c __locale_msgcharset
00812cf0 g     F .text	00000038 exit
0080340c g     F .text	000000c4 _fwalk_reent
00809df8 g     F .text	000001fc __mdiff
00801eb4 g     F .text	00000074 .hidden __modsi3
00815578 g     O .rwdata	00000004 __ctype_ptr__
01000000 g       *ABS*	00000000 __alt_data_end
00800020 g     F .exceptions	00000000 alt_exception
00802804 g     F .text	00000004 __sfp_lock_release
00800000 g       *ABS*	00000000 __alt_mem_sdram
00801fe4 g     F .text	0000000c atoi
00813492 g     O .rodata	00000101 _ctype_
008172d4 g     O .bss	00000004 button_event
00811d78 g     F .text	00000054 altera_avalon_uart_close
00802840 g     F .text	000000f4 _fopen_r
0081303c g     F .text	00000034 _exit
0080edcc g     F .text	0000012c alt_alarm_start
008035d0 g     F .text	000001bc __smakebuf_r
008172e0 g     O .bss	00000004 snap_taken
008172c8 g     O .bss	00000004 EWhandled
00804938 g     F .text	00000098 strlen
0080f73c g     F .text	00000154 open
0080dac0 g     F .text	000000dc .hidden __gedf2
00815580 g     O .rwdata	00000004 __wctomb
0080acdc g     F .text	00000018 __sprint_r
008125f0 g     F .text	00000034 alt_icache_flush_all
0081559c g     O .rwdata	00000004 alt_priority_mask
00812674 g     F .text	00000088 alt_ic_irq_enable
00806ed8 g     F .text	0000001c __vfprintf_internal
00811e08 g     F .text	000001dc altera_avalon_uart_read
0080c680 g     F .text	0000005c _wctomb_r
008172d8 g     O .bss	00000004 cam_count
0080e3a8 g     F .text	000008fc .hidden __subdf3
0080982c g     F .text	000000b0 __lo0bits
008155a4 g     O .rwdata	00000008 alt_alarm_list
008122f4 g     F .text	00000060 _do_ctors
0080c590 g     F .text	000000c0 wcrtomb
0080ef34 g     F .text	000000d0 close
00800e00 g     F .text	00000084 init_buttons_pio
0080f3e4 g     F .text	00000084 alt_load
0080c474 g     F .text	00000080 fputwc
00802808 g     F .text	00000004 __sinit_lock_acquire
008095a0 g     F .text	00000120 __multadd
00809578 g     F .text	00000028 _Bfree



Disassembly of section .entry:

00800000 <__reset>:
#if NIOS2_ICACHE_SIZE > 0 && defined(ALT_ALLOW_CODE_AT_RESET) && (!defined(ALT_SIM_OPTIMIZE) || defined(NIOS2_ECC_PRESENT))
    /* Assume the instruction cache size is always a power of two. */
#if NIOS2_ICACHE_SIZE > 0x8000
    movhi r2, %hi(NIOS2_ICACHE_SIZE)
#else
    movui r2, NIOS2_ICACHE_SIZE
  800000:	00840014 	movui	r2,4096
#endif

0:
    initi r2
  800004:	1001483a 	initi	r2
    addi r2, r2, -NIOS2_ICACHE_LINE_SIZE
  800008:	10bff804 	addi	r2,r2,-32
    bgt r2, zero, 0b
  80000c:	00bffd16 	blt	zero,r2,800004 <__alt_mem_onchip_mem+0xff780004>
 * Jump to the _start entry point in the .text section if reset code
 * is allowed or if optimizing for RTL simulation.
 */
#if defined(ALT_ALLOW_CODE_AT_RESET) || defined(ALT_SIM_OPTIMIZE)
    /* Jump to the _start entry point in the .text section. */
    movhi r1, %hi(_start)
  800010:	00402034 	movhi	at,128
    ori r1, r1, %lo(_start)
  800014:	08409114 	ori	at,at,580
    jmp r1
  800018:	0800683a 	jmp	at
  80001c:	00000000 	call	0 <__alt_mem_sdram-0x800000>

Disassembly of section .exceptions:

00800020 <alt_exception>:

#else /* ALT_EXCEPTION_STACK disabled */
        /* 
         * Reserve space on normal stack for registers about to be pushed.
         */
        addi  sp, sp, -76
  800020:	deffed04 	addi	sp,sp,-76
         * documentation for details).
         *
         * Leave a gap in the stack frame at 4(sp) for the muldiv handler to
         * store zero into.
         */
        stw   ra,  0(sp)
  800024:	dfc00015 	stw	ra,0(sp)
        stw   r1,   8(sp)
  800028:	d8400215 	stw	at,8(sp)
        stw   r2,  12(sp)
  80002c:	d8800315 	stw	r2,12(sp)
        stw   r3,  16(sp)
  800030:	d8c00415 	stw	r3,16(sp)
        stw   r4,  20(sp)
  800034:	d9000515 	stw	r4,20(sp)
        stw   r5,  24(sp)
  800038:	d9400615 	stw	r5,24(sp)
        stw   r6,  28(sp)
  80003c:	d9800715 	stw	r6,28(sp)
        stw   r7,  32(sp)
  800040:	d9c00815 	stw	r7,32(sp)
        rdctl r5, estatus   /* Read early to avoid usage stall */
  800044:	000b307a 	rdctl	r5,estatus
        stw   r8,  36(sp)
  800048:	da000915 	stw	r8,36(sp)
        stw   r9,  40(sp)
  80004c:	da400a15 	stw	r9,40(sp)
        stw   r10, 44(sp)
  800050:	da800b15 	stw	r10,44(sp)
        stw   r11, 48(sp)
  800054:	dac00c15 	stw	r11,48(sp)
        stw   r12, 52(sp)
  800058:	db000d15 	stw	r12,52(sp)
        stw   r13, 56(sp)
  80005c:	db400e15 	stw	r13,56(sp)
        stw   r14, 60(sp)
  800060:	db800f15 	stw	r14,60(sp)
        stw   r15, 64(sp)
  800064:	dbc01015 	stw	r15,64(sp)
        /*
         * ea-4 contains the address of the instruction being executed
         * when the exception occured. For interrupt exceptions, we will
         * will be re-issue the isntruction. Store it in 72(sp)
         */
        stw   r5,  68(sp)  /* estatus */
  800068:	d9401115 	stw	r5,68(sp)
        addi  r15, ea, -4  /* instruction that caused exception */
  80006c:	ebffff04 	addi	r15,ea,-4
        stw   r15,  72(sp)
  800070:	dbc01215 	stw	r15,72(sp)
#else
        /*
         * Test to see if the exception was a software exception or caused 
         * by an external interrupt, and vector accordingly.
         */
        rdctl r4, ipending
  800074:	0009313a 	rdctl	r4,ipending
        andi  r2, r5, 1
  800078:	2880004c 	andi	r2,r5,1
        beq   r2, zero, .Lnot_irq
  80007c:	10000326 	beq	r2,zero,80008c <alt_exception+0x6c>
        beq   r4, zero, .Lnot_irq
  800080:	20000226 	beq	r4,zero,80008c <alt_exception+0x6c>
        /*
         * Now that all necessary registers have been preserved, call 
         * alt_irq_handler() to process the interrupts.
         */

        call alt_irq_handler
  800084:	08000fc0 	call	8000fc <alt_irq_handler>

        .section .exceptions.irqreturn, "xa"

        br    .Lexception_exit
  800088:	00000706 	br	8000a8 <alt_exception+0x88>
         * upon completion, so we write ea (address of instruction *after*
         * the one where the exception occured) into 72(sp). The actual
         * instruction that caused the exception is written in r2, which these
         * handlers will utilize.
         */
        stw ea, 72(sp) /* EA is PC+4 so will skip over instruction causing exception */
  80008c:	df401215 	stw	ea,72(sp)
.Lunknown_16bit:
        addi.n r4, r4, 2 /* Need PC+2 to skip over instruction causing exception */
        stw r4, 72(sp)

#else /* CDX is not Enabled and all instructions are 32bits */
        ldw r2, -4(ea) /* Instruction value that caused exception */
  800090:	e8bfff17 	ldw	r2,-4(ea)
         * debugger is present) or go into an infinite loop since the
         * handling behavior is undefined; in that case we will not return here.
         */

        /* Load exception-causing address as first argument (r4) */
        addi   r4, ea, -4
  800094:	e93fff04 	addi	r4,ea,-4

        /* Call the instruction-exception entry */
        call   alt_instruction_exception_entry
  800098:	08001d00 	call	8001d0 <alt_instruction_exception_entry>
         * instruction
         *
         * Return code was 0: Skip. The instruction after the exception is
         * already stored in 72(sp).
         */
        bne   r2, r0, .Lexception_exit
  80009c:	1000021e 	bne	r2,zero,8000a8 <alt_exception+0x88>

        /*
         * Otherwise, modify 72(sp) to re-issue the instruction that caused the
         * exception.
         */
        addi  r15, ea, -4  /* instruction that caused exception */
  8000a0:	ebffff04 	addi	r15,ea,-4
        stw   r15,  72(sp)
  8000a4:	dbc01215 	stw	r15,72(sp)
        /* 
         * Restore the saved registers, so that all general purpose registers 
         * have been restored to their state at the time the interrupt occured.
         */

        ldw   r5,  68(sp)
  8000a8:	d9401117 	ldw	r5,68(sp)
        ldw   ea,  72(sp)  /* This becomes the PC once eret is executed */
  8000ac:	df401217 	ldw	ea,72(sp)
        ldw   ra,   0(sp)
  8000b0:	dfc00017 	ldw	ra,0(sp)

        wrctl estatus, r5
  8000b4:	2801707a 	wrctl	estatus,r5

        ldw   r1,   8(sp)
  8000b8:	d8400217 	ldw	at,8(sp)
        ldw   r2,  12(sp)
  8000bc:	d8800317 	ldw	r2,12(sp)
        ldw   r3,  16(sp)
  8000c0:	d8c00417 	ldw	r3,16(sp)
        ldw   r4,  20(sp)
  8000c4:	d9000517 	ldw	r4,20(sp)
        ldw   r5,  24(sp)
  8000c8:	d9400617 	ldw	r5,24(sp)
        ldw   r6,  28(sp)
  8000cc:	d9800717 	ldw	r6,28(sp)
        ldw   r7,  32(sp)
  8000d0:	d9c00817 	ldw	r7,32(sp)

#if defined(ALT_EXCEPTION_STACK) && defined(ALT_STACK_CHECK)
        ldw   et, %gprel(alt_exception_old_stack_limit)(gp)
#endif

        ldw   r8,  36(sp)
  8000d4:	da000917 	ldw	r8,36(sp)
        ldw   r9,  40(sp)
  8000d8:	da400a17 	ldw	r9,40(sp)
        ldw   r10, 44(sp)
  8000dc:	da800b17 	ldw	r10,44(sp)
        ldw   r11, 48(sp)
  8000e0:	dac00c17 	ldw	r11,48(sp)
        ldw   r12, 52(sp)
  8000e4:	db000d17 	ldw	r12,52(sp)
        ldw   r13, 56(sp)
  8000e8:	db400e17 	ldw	r13,56(sp)
        ldw   r14, 60(sp)
  8000ec:	db800f17 	ldw	r14,60(sp)
        ldw   r15, 64(sp)
  8000f0:	dbc01017 	ldw	r15,64(sp)
        stw   et, %gprel(alt_stack_limit_value)(gp)
        stw   zero, %gprel(alt_exception_old_stack_limit)(gp)
#endif /* ALT_STACK_CHECK */
        ldw   sp,  76(sp)
#else /* ALT_EXCEPTION_STACK disabled */
        addi  sp, sp, 76
  8000f4:	dec01304 	addi	sp,sp,76

        /*
         * Return to the interrupted instruction.
         */

        eret
  8000f8:	ef80083a 	eret

008000fc <alt_irq_handler>:
 * instruction is present if the macro ALT_CI_INTERRUPT_VECTOR defined.
 */

void alt_irq_handler (void) __attribute__ ((section (".exceptions")));
void alt_irq_handler (void)
{
  8000fc:	defff904 	addi	sp,sp,-28
  800100:	dfc00615 	stw	ra,24(sp)
  800104:	df000515 	stw	fp,20(sp)
  800108:	df000504 	addi	fp,sp,20
  
  /*
   * Notify the operating system that we are at interrupt level.
   */ 
  
  ALT_OS_INT_ENTER();
  80010c:	0001883a 	nop
#ifndef NIOS2_EIC_PRESENT
static ALT_INLINE alt_u32 ALT_ALWAYS_INLINE alt_irq_pending (void)
{
  alt_u32 active;

  NIOS2_READ_IPENDING (active);
  800110:	0005313a 	rdctl	r2,ipending
  800114:	e0bffe15 	stw	r2,-8(fp)

  return active;
  800118:	e0bffe17 	ldw	r2,-8(fp)
   * Consider the case where the high priority interupt is asserted during
   * the interrupt entry sequence for a lower priority interrupt to see why
   * this is the case.
   */

  active = alt_irq_pending ();
  80011c:	e0bffb15 	stw	r2,-20(fp)

  do
  {
    i = 0;
  800120:	e03ffd15 	stw	zero,-12(fp)
    mask = 1;
  800124:	00800044 	movi	r2,1
  800128:	e0bffc15 	stw	r2,-16(fp)
     * called to clear the interrupt condition.
     */

    do
    {
      if (active & mask)
  80012c:	e0fffb17 	ldw	r3,-20(fp)
  800130:	e0bffc17 	ldw	r2,-16(fp)
  800134:	1884703a 	and	r2,r3,r2
  800138:	10001426 	beq	r2,zero,80018c <alt_irq_handler+0x90>
      { 
#ifdef ALT_ENHANCED_INTERRUPT_API_PRESENT
        alt_irq[i].handler(alt_irq[i].context); 
  80013c:	00802074 	movhi	r2,129
  800140:	109cd404 	addi	r2,r2,29520
  800144:	e0fffd17 	ldw	r3,-12(fp)
  800148:	180690fa 	slli	r3,r3,3
  80014c:	10c5883a 	add	r2,r2,r3
  800150:	10c00017 	ldw	r3,0(r2)
  800154:	00802074 	movhi	r2,129
  800158:	109cd404 	addi	r2,r2,29520
  80015c:	e13ffd17 	ldw	r4,-12(fp)
  800160:	200890fa 	slli	r4,r4,3
  800164:	1105883a 	add	r2,r2,r4
  800168:	10800104 	addi	r2,r2,4
  80016c:	10800017 	ldw	r2,0(r2)
  800170:	1009883a 	mov	r4,r2
  800174:	183ee83a 	callr	r3
#else
        alt_irq[i].handler(alt_irq[i].context, i); 
#endif
        break;
  800178:	0001883a 	nop
#ifndef NIOS2_EIC_PRESENT
static ALT_INLINE alt_u32 ALT_ALWAYS_INLINE alt_irq_pending (void)
{
  alt_u32 active;

  NIOS2_READ_IPENDING (active);
  80017c:	0005313a 	rdctl	r2,ipending
  800180:	e0bfff15 	stw	r2,-4(fp)

  return active;
  800184:	e0bfff17 	ldw	r2,-4(fp)
  800188:	00000706 	br	8001a8 <alt_irq_handler+0xac>
      }
      mask <<= 1;
  80018c:	e0bffc17 	ldw	r2,-16(fp)
  800190:	1085883a 	add	r2,r2,r2
  800194:	e0bffc15 	stw	r2,-16(fp)
      i++;
  800198:	e0bffd17 	ldw	r2,-12(fp)
  80019c:	10800044 	addi	r2,r2,1
  8001a0:	e0bffd15 	stw	r2,-12(fp)

    } while (1);
  8001a4:	003fe106 	br	80012c <__alt_mem_onchip_mem+0xff78012c>

    active = alt_irq_pending ();
  8001a8:	e0bffb15 	stw	r2,-20(fp)
    
  } while (active);
  8001ac:	e0bffb17 	ldw	r2,-20(fp)
  8001b0:	103fdb1e 	bne	r2,zero,800120 <__alt_mem_onchip_mem+0xff780120>

  /*
   * Notify the operating system that interrupt processing is complete.
   */ 

  ALT_OS_INT_EXIT();
  8001b4:	0001883a 	nop
}
  8001b8:	0001883a 	nop
  8001bc:	e037883a 	mov	sp,fp
  8001c0:	dfc00117 	ldw	ra,4(sp)
  8001c4:	df000017 	ldw	fp,0(sp)
  8001c8:	dec00204 	addi	sp,sp,8
  8001cc:	f800283a 	ret

008001d0 <alt_instruction_exception_entry>:
 * that handler if it has been registered. Absent a handler, it will
 * break break or hang as discussed below.
 */
int 
alt_instruction_exception_entry (alt_u32 exception_pc)
{
  8001d0:	defffb04 	addi	sp,sp,-20
  8001d4:	dfc00415 	stw	ra,16(sp)
  8001d8:	df000315 	stw	fp,12(sp)
  8001dc:	df000304 	addi	fp,sp,12
  8001e0:	e13fff15 	stw	r4,-4(fp)
 * NIOS2_EXCEPTION_CAUSE_NOT_PRESENT. Your handling routine should
 * check the validity of the cause argument before proceeding.
 */
#ifdef NIOS2_HAS_EXTRA_EXCEPTION_INFO
  /* Get exception cause & "badaddr" */
  NIOS2_READ_EXCEPTION(cause);
  8001e4:	000531fa 	rdctl	r2,exception
  8001e8:	e0bffd15 	stw	r2,-12(fp)
  cause = ( (cause & NIOS2_EXCEPTION_REG_CAUSE_MASK) >>
  8001ec:	e0bffd17 	ldw	r2,-12(fp)
  8001f0:	10801f0c 	andi	r2,r2,124
  8001f4:	1004d0ba 	srli	r2,r2,2
  8001f8:	e0bffd15 	stw	r2,-12(fp)
              NIOS2_EXCEPTION_REG_CAUSE_OFST );

  NIOS2_READ_BADADDR(badaddr);
  8001fc:	0005333a 	rdctl	r2,badaddr
  800200:	e0bffe15 	stw	r2,-8(fp)
#else
  cause = NIOS2_EXCEPTION_CAUSE_NOT_PRESENT;
  badaddr = 0;
#endif /* NIOS2_HAS_EXTRA_EXCEPTION_INFO */

  if(alt_instruction_exception_handler) {
  800204:	d0a77717 	ldw	r2,-25124(gp)
  800208:	10000726 	beq	r2,zero,800228 <alt_instruction_exception_entry+0x58>
     * Call handler. Its return value indicates whether the exception-causing
     * instruction should be re-issued. The code that called us,
     * alt_eceptions_entry.S, will look at this value and adjust the ea
     * register as necessary
     */
    return alt_instruction_exception_handler(cause, exception_pc, badaddr);
  80020c:	d0a77717 	ldw	r2,-25124(gp)
  800210:	e0fffd17 	ldw	r3,-12(fp)
  800214:	e1bffe17 	ldw	r6,-8(fp)
  800218:	e17fff17 	ldw	r5,-4(fp)
  80021c:	1809883a 	mov	r4,r3
  800220:	103ee83a 	callr	r2
  800224:	00000206 	br	800230 <alt_instruction_exception_entry+0x60>
   *    (a peripheral which negates its interrupt output before its
   *    interrupt handler has been executed will cause spurious interrupts)
   */
  else {
#ifdef NIOS2_HAS_DEBUG_STUB
    NIOS2_BREAK();
  800228:	003da03a 	break	0
      ;
#endif /* NIOS2_HAS_DEBUG_STUB */
  }

  /* We should not get here. Remove compiler warning. */
  return NIOS2_EXCEPTION_RETURN_REISSUE_INST;
  80022c:	0005883a 	mov	r2,zero
}
  800230:	e037883a 	mov	sp,fp
  800234:	dfc00117 	ldw	ra,4(sp)
  800238:	df000017 	ldw	fp,0(sp)
  80023c:	dec00204 	addi	sp,sp,8
  800240:	f800283a 	ret

Disassembly of section .text:

00800244 <_start>:

    /* Assume the data cache size is always a power of two. */
#if NIOS2_DCACHE_SIZE > 0x8000
    movhi r2, %hi(NIOS2_DCACHE_SIZE)
#else
    movui r2, NIOS2_DCACHE_SIZE
  800244:	00820014 	movui	r2,2048
#endif

0:
    initd 0(r2)
  800248:	10000033 	initd	0(r2)
#ifdef NIOS2_ECC_PRESENT
    addi r2, r2, -4
#else
    addi r2, r2, -NIOS2_DCACHE_LINE_SIZE
  80024c:	10bff804 	addi	r2,r2,-32
#endif
    bgt r2, zero, 0b
  800250:	00bffd16 	blt	zero,r2,800248 <__alt_mem_onchip_mem+0xff780248>

    /*
     * Now that the caches are initialized, set up the stack pointer and global pointer.
     * The values provided by the linker are assumed to be correctly aligned.
     */
    movhi sp, %hi(__alt_stack_pointer)
  800254:	06c04034 	movhi	sp,256
    ori sp, sp, %lo(__alt_stack_pointer)
  800258:	dec00014 	ori	sp,sp,0
    movhi gp, %hi(_gp)
  80025c:	06802074 	movhi	gp,129
    ori gp, gp, %lo(_gp)
  800260:	d6b55214 	ori	gp,gp,54600
 */
#ifndef ALT_SIM_OPTIMIZE
    /* Log that the BSS is about to be cleared. */
    ALT_LOG_PUTS(alt_log_msg_bss)

    movhi r2, %hi(__bss_start)
  800264:	00802074 	movhi	r2,129
    ori r2, r2, %lo(__bss_start)
  800268:	109caa14 	ori	r2,r2,29352

    movhi r3, %hi(__bss_end)
  80026c:	00c02074 	movhi	r3,129
    ori r3, r3, %lo(__bss_end)
  800270:	18dd1414 	ori	r3,r3,29776

    beq r2, r3, 1f
  800274:	10c00326 	beq	r2,r3,800284 <_start+0x40>

0:
    stw zero, (r2)
  800278:	10000015 	stw	zero,0(r2)
    addi r2, r2, 4
  80027c:	10800104 	addi	r2,r2,4
    bltu r2, r3, 0b
  800280:	10fffd36 	bltu	r2,r3,800278 <__alt_mem_onchip_mem+0xff780278>
     * section aren't defined until alt_load() has been called).
     */
    mov   et, zero
#endif

    call alt_load
  800284:	080f3e40 	call	80f3e4 <alt_load>

    /* Log that alt_main is about to be called. */
    ALT_LOG_PUTS(alt_log_msg_alt_main)

    /* Call the C entry point. It should never return. */
    call alt_main
  800288:	080f5780 	call	80f578 <alt_main>

0080028c <alt_after_alt_main>:

    /* Wait in infinite loop in case alt_main does return. */
alt_after_alt_main:
    br alt_after_alt_main
  80028c:	003fff06 	br	80028c <__alt_mem_onchip_mem+0xff78028c>

00800290 <tlc_timer_isr>:



// timer isr for the main traffic light controller
// sets a flag to be handled in the main()
alt_u32 tlc_timer_isr(void* context){
  800290:	defffe04 	addi	sp,sp,-8
  800294:	df000115 	stw	fp,4(sp)
  800298:	df000104 	addi	fp,sp,4
  80029c:	e13fff15 	stw	r4,-4(fp)
	timer_event = 1;
  8002a0:	00800044 	movi	r2,1
  8002a4:	d0a76715 	stw	r2,-25188(gp)
	return 0;
  8002a8:	0005883a 	mov	r2,zero

}
  8002ac:	e037883a 	mov	sp,fp
  8002b0:	df000017 	ldw	fp,0(sp)
  8002b4:	dec00104 	addi	sp,sp,4
  8002b8:	f800283a 	ret

008002bc <camera_timer_isr>:


// timer isr for the red light camera
// counts up by one every second
alt_u32 camera_timer_isr(void* context){
  8002bc:	defffd04 	addi	sp,sp,-12
  8002c0:	dfc00215 	stw	ra,8(sp)
  8002c4:	df000115 	stw	fp,4(sp)
  8002c8:	df000104 	addi	fp,sp,4
  8002cc:	e13fff15 	stw	r4,-4(fp)
	cam_count++;
  8002d0:	d0a76417 	ldw	r2,-25200(gp)
  8002d4:	10800044 	addi	r2,r2,1
  8002d8:	d0a76415 	stw	r2,-25200(gp)
	printf("cam_count: %i \n", cam_count);
  8002dc:	d0a76417 	ldw	r2,-25200(gp)
  8002e0:	100b883a 	mov	r5,r2
  8002e4:	01002074 	movhi	r4,129
  8002e8:	210c1c04 	addi	r4,r4,12400
  8002ec:	08042980 	call	804298 <printf>
	return 10;
  8002f0:	00800284 	movi	r2,10
}
  8002f4:	e037883a 	mov	sp,fp
  8002f8:	dfc00117 	ldw	ra,4(sp)
  8002fc:	df000017 	ldw	fp,0(sp)
  800300:	dec00204 	addi	sp,sp,8
  800304:	f800283a 	ret

00800308 <button_isr>:


// button isr
void button_isr(void* context, alt_u32 id) {
  800308:	defffc04 	addi	sp,sp,-16
  80030c:	df000315 	stw	fp,12(sp)
  800310:	df000304 	addi	fp,sp,12
  800314:	e13ffe15 	stw	r4,-8(fp)
  800318:	e17fff15 	stw	r5,-4(fp)
	if (mutex_lock_flag == 0) {
  80031c:	d0a75917 	ldw	r2,-25244(gp)
  800320:	1000341e 	bne	r2,zero,8003f4 <button_isr+0xec>
		mutex_lock_flag = 1;
  800324:	00800044 	movi	r2,1
  800328:	d0a75915 	stw	r2,-25244(gp)
		int buttonValue = READ_BUTTONS;
  80032c:	00804434 	movhi	r2,272
  800330:	10842804 	addi	r2,r2,4256
  800334:	10800037 	ldwio	r2,0(r2)
  800338:	e0bffd15 	stw	r2,-12(fp)
		if (buttonValue == 6) { // KEY0 - NS Pedestrian Button
  80033c:	e0bffd17 	ldw	r2,-12(fp)
  800340:	10800198 	cmpnei	r2,r2,6
  800344:	1000041e 	bne	r2,zero,800358 <button_isr+0x50>
			NSraised = 1;
  800348:	00800044 	movi	r2,1
  80034c:	d0a76115 	stw	r2,-25212(gp)
			NShandled = 0;
  800350:	d0275f15 	stw	zero,-25220(gp)
  800354:	00002206 	br	8003e0 <button_isr+0xd8>
		} else if (buttonValue == 5) { // KEY1 - EW Pedestrian Button
  800358:	e0bffd17 	ldw	r2,-12(fp)
  80035c:	10800158 	cmpnei	r2,r2,5
  800360:	1000041e 	bne	r2,zero,800374 <button_isr+0x6c>
			EWraised = 1;
  800364:	00800044 	movi	r2,1
  800368:	d0a76215 	stw	r2,-25208(gp)
			EWhandled = 0;
  80036c:	d0276015 	stw	zero,-25216(gp)
  800370:	00001b06 	br	8003e0 <button_isr+0xd8>
		} else if (buttonValue == 4) { // KEY0 and KEY1 at the same time
  800374:	e0bffd17 	ldw	r2,-12(fp)
  800378:	10800118 	cmpnei	r2,r2,4
  80037c:	1000071e 	bne	r2,zero,80039c <button_isr+0x94>
			EWraised = 1;
  800380:	00800044 	movi	r2,1
  800384:	d0a76215 	stw	r2,-25208(gp)
			EWhandled = 0;
  800388:	d0276015 	stw	zero,-25216(gp)
			NSraised = 1;
  80038c:	00800044 	movi	r2,1
  800390:	d0a76115 	stw	r2,-25212(gp)
			NShandled = 0;
  800394:	d0275f15 	stw	zero,-25220(gp)
  800398:	00001106 	br	8003e0 <button_isr+0xd8>
		} else if (mode == 4 && buttonValue == 3) { // KEY2
  80039c:	d0a75a17 	ldw	r2,-25240(gp)
  8003a0:	10800118 	cmpnei	r2,r2,4
  8003a4:	10000e1e 	bne	r2,zero,8003e0 <button_isr+0xd8>
  8003a8:	e0bffd17 	ldw	r2,-12(fp)
  8003ac:	108000d8 	cmpnei	r2,r2,3
  8003b0:	10000b1e 	bne	r2,zero,8003e0 <button_isr+0xd8>
			if (vehicle_in == 0) { // vehicle entering
  8003b4:	d0a76517 	ldw	r2,-25196(gp)
  8003b8:	1000061e 	bne	r2,zero,8003d4 <button_isr+0xcc>
				vehicle_in = 1;
  8003bc:	00800044 	movi	r2,1
  8003c0:	d0a76515 	stw	r2,-25196(gp)
				button_event = 1;
  8003c4:	00800044 	movi	r2,1
  8003c8:	d0a76315 	stw	r2,-25204(gp)
				snap_taken = 0;
  8003cc:	d0276615 	stw	zero,-25192(gp)
  8003d0:	00000306 	br	8003e0 <button_isr+0xd8>
			} else { // vehicle leaving
				vehicle_in = 0;
  8003d4:	d0276515 	stw	zero,-25196(gp)
				button_event = 1;
  8003d8:	00800044 	movi	r2,1
  8003dc:	d0a76315 	stw	r2,-25204(gp)
			}
		}

		// clear edge capture register
		IOWR_ALTERA_AVALON_PIO_EDGE_CAP(BUTTONS_BASE, 0);
  8003e0:	0007883a 	mov	r3,zero
  8003e4:	00804434 	movhi	r2,272
  8003e8:	10842b04 	addi	r2,r2,4268
  8003ec:	10c00035 	stwio	r3,0(r2)

		mutex_lock_flag = 0;
  8003f0:	d0275915 	stw	zero,-25244(gp)
	}
}
  8003f4:	0001883a 	nop
  8003f8:	e037883a 	mov	sp,fp
  8003fc:	df000017 	ldw	fp,0(sp)
  800400:	dec00104 	addi	sp,sp,4
  800404:	f800283a 	ret

00800408 <main>:


//////////////////////////////////////////////////          MAIN          \\\\\\\\\\\\\\\\\\\\\\\\\\\\\\\\\\\\\\\\\\\\\\\\\\

int main(void)
{
  800408:	deffd204 	addi	sp,sp,-184
  80040c:	dfc02d15 	stw	ra,180(sp)
  800410:	df002c15 	stw	fp,176(sp)
  800414:	dc002b15 	stw	r16,172(sp)
  800418:	df002c04 	addi	fp,sp,176
	alt_alarm timer2;

	FILE *lcd;
	FILE *uart;

	uart = fopen(UART_NAME, "w");
  80041c:	01402074 	movhi	r5,129
  800420:	294c2004 	addi	r5,r5,12416
  800424:	01002074 	movhi	r4,129
  800428:	210c2104 	addi	r4,r4,12420
  80042c:	08029340 	call	802934 <fopen>
  800430:	e0bfee15 	stw	r2,-72(fp)
	fprintf(uart,"\f");
  800434:	e17fee17 	ldw	r5,-72(fp)
  800438:	01000304 	movi	r4,12
  80043c:	08029dc0 	call	8029dc <fputc>
	fclose(uart);
  800440:	e13fee17 	ldw	r4,-72(fp)
  800444:	08020ec0 	call	8020ec <fclose>

	int context = 1;
  800448:	00800044 	movi	r2,1
  80044c:	e0bfef15 	stw	r2,-68(fp)
	int buttons_initialised = 0;
  800450:	e03feb15 	stw	zero,-84(fp)
	int temp_mode = 0;
  800454:	e03fec15 	stw	zero,-80(fp)
	int next_time = 0;
  800458:	e03ff015 	stw	zero,-64(fp)


	int timeCountMain = 0;
  80045c:	e03ffe15 	stw	zero,-8(fp)
	void* timerContext = (void*) &timeCountMain;
  800460:	e0bffe04 	addi	r2,fp,-8
  800464:	e0bff115 	stw	r2,-60(fp)
	alt_alarm_start(&timer, 500, tlc_timer_isr,timerContext);
  800468:	e0bff204 	addi	r2,fp,-56
  80046c:	e1fff117 	ldw	r7,-60(fp)
  800470:	01802034 	movhi	r6,128
  800474:	3180a404 	addi	r6,r6,656
  800478:	01407d04 	movi	r5,500
  80047c:	1009883a 	mov	r4,r2
  800480:	080edcc0 	call	80edcc <alt_alarm_start>

	while(1) {

		temp_mode = switch_read_mode();
  800484:	0800c640 	call	800c64 <switch_read_mode>
  800488:	e0bfec15 	stw	r2,-80(fp)
		// handles the switching of modes
		// only change mode when in safe state, when a proper mode (i.e. 1,2,3, or 4) has been chosen, and the mode is not the same mode
		if ((state == RR && temp_mode != 0 && temp_mode != mode) || (mode == 0)) {
  80048c:	d0a75817 	ldw	r2,-25248(gp)
  800490:	1000051e 	bne	r2,zero,8004a8 <main+0xa0>
  800494:	e0bfec17 	ldw	r2,-80(fp)
  800498:	10000326 	beq	r2,zero,8004a8 <main+0xa0>
  80049c:	d0a75a17 	ldw	r2,-25240(gp)
  8004a0:	e0ffec17 	ldw	r3,-80(fp)
  8004a4:	1880021e 	bne	r3,r2,8004b0 <main+0xa8>
  8004a8:	d0a75a17 	ldw	r2,-25240(gp)
  8004ac:	10001f1e 	bne	r2,zero,80052c <main+0x124>
			if (mode == 0) {
  8004b0:	d0a75a17 	ldw	r2,-25240(gp)
  8004b4:	10001a1e 	bne	r2,zero,800520 <main+0x118>
				lcd_mode(); // print "enter mode" to LCD
  8004b8:	08009e00 	call	8009e0 <lcd_mode>
				NO_LED;
  8004bc:	0007883a 	mov	r3,zero
  8004c0:	00804434 	movhi	r2,272
  8004c4:	10841c04 	addi	r2,r2,4208
  8004c8:	10c00035 	stwio	r3,0(r2)
				// blocking until a mode is selected
				while(mode == 0) {
  8004cc:	00000406 	br	8004e0 <main+0xd8>
					change_mode(temp_mode);
  8004d0:	e13fec17 	ldw	r4,-80(fp)
  8004d4:	080093c0 	call	80093c <change_mode>
					temp_mode = switch_read_mode();
  8004d8:	0800c640 	call	800c64 <switch_read_mode>
  8004dc:	e0bfec15 	stw	r2,-80(fp)
		if ((state == RR && temp_mode != 0 && temp_mode != mode) || (mode == 0)) {
			if (mode == 0) {
				lcd_mode(); // print "enter mode" to LCD
				NO_LED;
				// blocking until a mode is selected
				while(mode == 0) {
  8004e0:	d0a75a17 	ldw	r2,-25240(gp)
  8004e4:	103ffa26 	beq	r2,zero,8004d0 <__alt_mem_onchip_mem+0xff7804d0>
					change_mode(temp_mode);
					temp_mode = switch_read_mode();
				}
				// if selecting mode right at the start, reset the states and the timer

				alt_alarm_stop(&timer);
  8004e8:	e0bff204 	addi	r2,fp,-56
  8004ec:	1009883a 	mov	r4,r2
  8004f0:	080fadc0 	call	80fadc <alt_alarm_stop>
				state = RR;
  8004f4:	d0275815 	stw	zero,-25248(gp)
				prev_state = RY;
  8004f8:	00800104 	movi	r2,4
  8004fc:	d0a00015 	stw	r2,-32768(gp)
				alt_alarm_start(&timer, 500, tlc_timer_isr,timerContext);
  800500:	e0bff204 	addi	r2,fp,-56
  800504:	e1fff117 	ldw	r7,-60(fp)
  800508:	01802034 	movhi	r6,128
  80050c:	3180a404 	addi	r6,r6,656
  800510:	01407d04 	movi	r5,500
  800514:	1009883a 	mov	r4,r2
  800518:	080edcc0 	call	80edcc <alt_alarm_start>
  80051c:	00000206 	br	800528 <main+0x120>
			} else {
				change_mode(temp_mode);
  800520:	e13fec17 	ldw	r4,-80(fp)
  800524:	080093c0 	call	80093c <change_mode>
			}
			lcd_mode(); // print mode to LCD
  800528:	08009e00 	call	8009e0 <lcd_mode>
		}

		// handles the main traffic light LEDs (all modes)
		simple_tlc_leds();
  80052c:	0800d080 	call	800d08 <simple_tlc_leds>

		// set the red LEDs based on which switches are turned on
		RED_LED_SWITCHES;
  800530:	00804434 	movhi	r2,272
  800534:	10842404 	addi	r2,r2,4240
  800538:	10c00037 	ldwio	r3,0(r2)
  80053c:	00800134 	movhi	r2,4
  800540:	10bfffc4 	addi	r2,r2,-1
  800544:	10c7c83a 	sub	r3,r2,r3
  800548:	00804434 	movhi	r2,272
  80054c:	10842004 	addi	r2,r2,4224
  800550:	10c00035 	stwio	r3,0(r2)

		// handles the changing of states (only when the timer flag is set, all modes)
		if (timer_event == 1 && mutex_lock_flag == 0) {
  800554:	d0a76717 	ldw	r2,-25188(gp)
  800558:	10800058 	cmpnei	r2,r2,1
  80055c:	1000131e 	bne	r2,zero,8005ac <main+0x1a4>
  800560:	d0a75917 	ldw	r2,-25244(gp)
  800564:	1000111e 	bne	r2,zero,8005ac <main+0x1a4>
			mutex_lock_flag = 1;
  800568:	00800044 	movi	r2,1
  80056c:	d0a75915 	stw	r2,-25244(gp)
			alt_alarm_stop(&timer);
  800570:	e0bff204 	addi	r2,fp,-56
  800574:	1009883a 	mov	r4,r2
  800578:	080fadc0 	call	80fadc <alt_alarm_stop>
			next_time = tlc_state_machine();
  80057c:	0800aa00 	call	800aa0 <tlc_state_machine>
  800580:	e0bff015 	stw	r2,-64(fp)
			alt_alarm_start(&timer, next_time, tlc_timer_isr,timerContext);
  800584:	e0fff017 	ldw	r3,-64(fp)
  800588:	e0bff204 	addi	r2,fp,-56
  80058c:	e1fff117 	ldw	r7,-60(fp)
  800590:	01802034 	movhi	r6,128
  800594:	3180a404 	addi	r6,r6,656
  800598:	180b883a 	mov	r5,r3
  80059c:	1009883a 	mov	r4,r2
  8005a0:	080edcc0 	call	80edcc <alt_alarm_start>
			timer_event = 0;
  8005a4:	d0276715 	stw	zero,-25188(gp)
			mutex_lock_flag = 0;
  8005a8:	d0275915 	stw	zero,-25244(gp)
		}


		if (mode == 1) { // MODE 1 ONLY
  8005ac:	d0a75a17 	ldw	r2,-25240(gp)
  8005b0:	10800058 	cmpnei	r2,r2,1
  8005b4:	1000041e 	bne	r2,zero,8005c8 <main+0x1c0>
			init_buttons_pio(0,(void*) 1); // disable button interrupts in mode 1
  8005b8:	01400044 	movi	r5,1
  8005bc:	0009883a 	mov	r4,zero
  8005c0:	0800e000 	call	800e00 <init_buttons_pio>
  8005c4:	00000806 	br	8005e8 <main+0x1e0>
		} else { // MODE 2, 3, 4 ONLY
			if (buttons_initialised == 0) { // enable button interrupts
  8005c8:	e0bfeb17 	ldw	r2,-84(fp)
  8005cc:	1000051e 	bne	r2,zero,8005e4 <main+0x1dc>
				init_buttons_pio(1,(void*) 1);
  8005d0:	01400044 	movi	r5,1
  8005d4:	01000044 	movi	r4,1
  8005d8:	0800e000 	call	800e00 <init_buttons_pio>
				buttons_initialised = 1;
  8005dc:	00800044 	movi	r2,1
  8005e0:	e0bfeb15 	stw	r2,-84(fp)
			}
			pedestrian_tlc();
  8005e4:	0800e840 	call	800e84 <pedestrian_tlc>
		}


		if (mode == 3 || mode == 4) { // MODE 3, 4 ONLY
  8005e8:	d0a75a17 	ldw	r2,-25240(gp)
  8005ec:	108000e0 	cmpeqi	r2,r2,3
  8005f0:	1000031e 	bne	r2,zero,800600 <main+0x1f8>
  8005f4:	d0a75a17 	ldw	r2,-25240(gp)
  8005f8:	10800118 	cmpnei	r2,r2,4
  8005fc:	1000571e 	bne	r2,zero,80075c <main+0x354>
			// in RR state, if SW4 and SW2 are on, or if SW4 and SW3 are on, configure new timeout values
			// also, don't configure new values if timeout_set == 1 (which means that new values have been set but SW4 hasn't been turned off since then)
			if (state == RR && (READ_SWITCHES == 20 || READ_SWITCHES == 24) && timeout_set == 0) {
  800600:	d0a75817 	ldw	r2,-25248(gp)
  800604:	10003a1e 	bne	r2,zero,8006f0 <main+0x2e8>
  800608:	00804434 	movhi	r2,272
  80060c:	10842404 	addi	r2,r2,4240
  800610:	10c00037 	ldwio	r3,0(r2)
  800614:	00800134 	movhi	r2,4
  800618:	10bfffc4 	addi	r2,r2,-1
  80061c:	10c5c83a 	sub	r2,r2,r3
  800620:	10800520 	cmpeqi	r2,r2,20
  800624:	1000081e 	bne	r2,zero,800648 <main+0x240>
  800628:	00804434 	movhi	r2,272
  80062c:	10842404 	addi	r2,r2,4240
  800630:	10c00037 	ldwio	r3,0(r2)
  800634:	00800134 	movhi	r2,4
  800638:	10bfffc4 	addi	r2,r2,-1
  80063c:	10c5c83a 	sub	r2,r2,r3
  800640:	10800618 	cmpnei	r2,r2,24
  800644:	10002a1e 	bne	r2,zero,8006f0 <main+0x2e8>
  800648:	d0a76917 	ldw	r2,-25180(gp)
  80064c:	1000281e 	bne	r2,zero,8006f0 <main+0x2e8>
				alt_alarm_stop(&timer);
  800650:	e0bff204 	addi	r2,fp,-56
  800654:	1009883a 	mov	r4,r2
  800658:	080fadc0 	call	80fadc <alt_alarm_stop>
				// blocking function to handle new timeout values
				simple_tlc_leds(state); // sometimes the leds don't get set properly before the blocking function, so fixed it by setting them here
  80065c:	d0a75817 	ldw	r2,-25248(gp)
  800660:	1009883a 	mov	r4,r2
  800664:	0800d080 	call	800d08 <simple_tlc_leds>
				while(timeout_data_handler(*uart));
  800668:	0001883a 	nop
  80066c:	e43fee17 	ldw	r16,-72(fp)
  800670:	d809883a 	mov	r4,sp
  800674:	80800404 	addi	r2,r16,16
  800678:	00c01604 	movi	r3,88
  80067c:	180d883a 	mov	r6,r3
  800680:	100b883a 	mov	r5,r2
  800684:	0803f980 	call	803f98 <memcpy>
  800688:	81000017 	ldw	r4,0(r16)
  80068c:	81400117 	ldw	r5,4(r16)
  800690:	81800217 	ldw	r6,8(r16)
  800694:	81c00317 	ldw	r7,12(r16)
  800698:	0800f340 	call	800f34 <timeout_data_handler>
  80069c:	103ff31e 	bne	r2,zero,80066c <__alt_mem_onchip_mem+0xff78066c>
				int temp_t;
				if (prev_state == RY) {
  8006a0:	d0a00017 	ldw	r2,-32768(gp)
  8006a4:	10800118 	cmpnei	r2,r2,4
  8006a8:	1000031e 	bne	r2,zero,8006b8 <main+0x2b0>
					temp_t = T1;
  8006ac:	d0a00217 	ldw	r2,-32760(gp)
  8006b0:	e0bfed15 	stw	r2,-76(fp)
  8006b4:	00000506 	br	8006cc <main+0x2c4>
				} else if (prev_state == YR) {
  8006b8:	d0a00017 	ldw	r2,-32768(gp)
  8006bc:	10800098 	cmpnei	r2,r2,2
  8006c0:	1000021e 	bne	r2,zero,8006cc <main+0x2c4>
					temp_t = T4;
  8006c4:	d0a00517 	ldw	r2,-32748(gp)
  8006c8:	e0bfed15 	stw	r2,-76(fp)
				}
				alt_alarm_start(&timer, temp_t, tlc_timer_isr,timerContext);
  8006cc:	e0ffed17 	ldw	r3,-76(fp)
  8006d0:	e0bff204 	addi	r2,fp,-56
  8006d4:	e1fff117 	ldw	r7,-60(fp)
  8006d8:	01802034 	movhi	r6,128
  8006dc:	3180a404 	addi	r6,r6,656
  8006e0:	180b883a 	mov	r5,r3
  8006e4:	1009883a 	mov	r4,r2
  8006e8:	080edcc0 	call	80edcc <alt_alarm_start>


		if (mode == 3 || mode == 4) { // MODE 3, 4 ONLY
			// in RR state, if SW4 and SW2 are on, or if SW4 and SW3 are on, configure new timeout values
			// also, don't configure new values if timeout_set == 1 (which means that new values have been set but SW4 hasn't been turned off since then)
			if (state == RR && (READ_SWITCHES == 20 || READ_SWITCHES == 24) && timeout_set == 0) {
  8006ec:	00001b06 	br	80075c <main+0x354>
				} else if (prev_state == YR) {
					temp_t = T4;
				}
				alt_alarm_start(&timer, temp_t, tlc_timer_isr,timerContext);
			// once SW4 is turned off, set timeout_set back to zero so that new values can be configured when SW4 is turned back on
			} else if (state != RR && (READ_SWITCHES != 20 && READ_SWITCHES != 24 && READ_SWITCHES != 16)) {
  8006f0:	d0a75817 	ldw	r2,-25248(gp)
  8006f4:	10001926 	beq	r2,zero,80075c <main+0x354>
  8006f8:	00804434 	movhi	r2,272
  8006fc:	10842404 	addi	r2,r2,4240
  800700:	10c00037 	ldwio	r3,0(r2)
  800704:	00800134 	movhi	r2,4
  800708:	10bfffc4 	addi	r2,r2,-1
  80070c:	10c5c83a 	sub	r2,r2,r3
  800710:	10800520 	cmpeqi	r2,r2,20
  800714:	1000111e 	bne	r2,zero,80075c <main+0x354>
  800718:	00804434 	movhi	r2,272
  80071c:	10842404 	addi	r2,r2,4240
  800720:	10c00037 	ldwio	r3,0(r2)
  800724:	00800134 	movhi	r2,4
  800728:	10bfffc4 	addi	r2,r2,-1
  80072c:	10c5c83a 	sub	r2,r2,r3
  800730:	10800620 	cmpeqi	r2,r2,24
  800734:	1000091e 	bne	r2,zero,80075c <main+0x354>
  800738:	00804434 	movhi	r2,272
  80073c:	10842404 	addi	r2,r2,4240
  800740:	10c00037 	ldwio	r3,0(r2)
  800744:	00800134 	movhi	r2,4
  800748:	10bfffc4 	addi	r2,r2,-1
  80074c:	10c5c83a 	sub	r2,r2,r3
  800750:	10800420 	cmpeqi	r2,r2,16
  800754:	1000011e 	bne	r2,zero,80075c <main+0x354>
				timeout_set = 0;
  800758:	d0276915 	stw	zero,-25180(gp)
			}
		}
		if (mode == 4) { // MODE 4 ONLY
  80075c:	d0a75a17 	ldw	r2,-25240(gp)
  800760:	10800118 	cmpnei	r2,r2,4
  800764:	103f471e 	bne	r2,zero,800484 <__alt_mem_onchip_mem+0xff780484>
			if (vehicle_in == 1 && button_event == 1){
  800768:	d0a76517 	ldw	r2,-25196(gp)
  80076c:	10800058 	cmpnei	r2,r2,1
  800770:	10003e1e 	bne	r2,zero,80086c <main+0x464>
  800774:	d0a76317 	ldw	r2,-25204(gp)
  800778:	10800058 	cmpnei	r2,r2,1
  80077c:	10003b1e 	bne	r2,zero,80086c <main+0x464>
				// start vehicle timer, and print "Vehicle entered" to uart
				alt_alarm_start(&timer2,1000,camera_timer_isr,timerContext);
  800780:	e0bff804 	addi	r2,fp,-32
  800784:	e1fff117 	ldw	r7,-60(fp)
  800788:	01802034 	movhi	r6,128
  80078c:	3180af04 	addi	r6,r6,700
  800790:	0140fa04 	movi	r5,1000
  800794:	1009883a 	mov	r4,r2
  800798:	080edcc0 	call	80edcc <alt_alarm_start>
				button_event = 0;
  80079c:	d0276315 	stw	zero,-25204(gp)
				camera_uart(4,*uart);
  8007a0:	e43fee17 	ldw	r16,-72(fp)
  8007a4:	d809883a 	mov	r4,sp
  8007a8:	80800304 	addi	r2,r16,12
  8007ac:	00c01704 	movi	r3,92
  8007b0:	180d883a 	mov	r6,r3
  8007b4:	100b883a 	mov	r5,r2
  8007b8:	0803f980 	call	803f98 <memcpy>
  8007bc:	81400017 	ldw	r5,0(r16)
  8007c0:	81800117 	ldw	r6,4(r16)
  8007c4:	81c00217 	ldw	r7,8(r16)
  8007c8:	01000104 	movi	r4,4
  8007cc:	08012b80 	call	8012b8 <camera_uart>
				if (state == RG || state == GR) { // if car enters on a green, do not activate the camera
  8007d0:	d0a75817 	ldw	r2,-25248(gp)
  8007d4:	108000e0 	cmpeqi	r2,r2,3
  8007d8:	1000031e 	bne	r2,zero,8007e8 <main+0x3e0>
  8007dc:	d0a75817 	ldw	r2,-25248(gp)
  8007e0:	10800058 	cmpnei	r2,r2,1
  8007e4:	1000031e 	bne	r2,zero,8007f4 <main+0x3ec>
					entered_on_green = 1;
  8007e8:	00800044 	movi	r2,1
  8007ec:	d0a76815 	stw	r2,-25184(gp)
  8007f0:	00000d06 	br	800828 <main+0x420>
				} else {
					camera_uart(1,*uart);
  8007f4:	e43fee17 	ldw	r16,-72(fp)
  8007f8:	d809883a 	mov	r4,sp
  8007fc:	80800304 	addi	r2,r16,12
  800800:	00c01704 	movi	r3,92
  800804:	180d883a 	mov	r6,r3
  800808:	100b883a 	mov	r5,r2
  80080c:	0803f980 	call	803f98 <memcpy>
  800810:	81400017 	ldw	r5,0(r16)
  800814:	81800117 	ldw	r6,4(r16)
  800818:	81c00217 	ldw	r7,8(r16)
  80081c:	01000044 	movi	r4,1
  800820:	08012b80 	call	8012b8 <camera_uart>
					entered_on_green = 0;
  800824:	d0276815 	stw	zero,-25184(gp)
				}
				if (state == RR) {
  800828:	d0a75817 	ldw	r2,-25248(gp)
  80082c:	1000411e 	bne	r2,zero,800934 <main+0x52c>
					// if vehicle enters on a red light, take snapshot immediately (but timer will still be active until the vehicle leaves)
					camera_uart(3,*uart);
  800830:	e43fee17 	ldw	r16,-72(fp)
  800834:	d809883a 	mov	r4,sp
  800838:	80800304 	addi	r2,r16,12
  80083c:	00c01704 	movi	r3,92
  800840:	180d883a 	mov	r6,r3
  800844:	100b883a 	mov	r5,r2
  800848:	0803f980 	call	803f98 <memcpy>
  80084c:	81400017 	ldw	r5,0(r16)
  800850:	81800117 	ldw	r6,4(r16)
  800854:	81c00217 	ldw	r7,8(r16)
  800858:	010000c4 	movi	r4,3
  80085c:	08012b80 	call	8012b8 <camera_uart>
					snap_taken = 1;
  800860:	00800044 	movi	r2,1
  800864:	d0a76615 	stw	r2,-25192(gp)
			} else if (state != RR && (READ_SWITCHES != 20 && READ_SWITCHES != 24 && READ_SWITCHES != 16)) {
				timeout_set = 0;
			}
		}
		if (mode == 4) { // MODE 4 ONLY
			if (vehicle_in == 1 && button_event == 1){
  800868:	00003206 	br	800934 <main+0x52c>
					// if vehicle enters on a red light, take snapshot immediately (but timer will still be active until the vehicle leaves)
					camera_uart(3,*uart);
					snap_taken = 1;
				}
			}
			else if (vehicle_in == 0 && button_event == 1){
  80086c:	d0a76517 	ldw	r2,-25196(gp)
  800870:	1000171e 	bne	r2,zero,8008d0 <main+0x4c8>
  800874:	d0a76317 	ldw	r2,-25204(gp)
  800878:	10800058 	cmpnei	r2,r2,1
  80087c:	1000141e 	bne	r2,zero,8008d0 <main+0x4c8>
				// stop red light camera timer, print "Vehicle left" and camera time to uart
				if (cam_count != 0) {
  800880:	d0a76417 	ldw	r2,-25200(gp)
  800884:	10002c26 	beq	r2,zero,800938 <main+0x530>
					alt_alarm_stop(&timer2);
  800888:	e0bff804 	addi	r2,fp,-32
  80088c:	1009883a 	mov	r4,r2
  800890:	080fadc0 	call	80fadc <alt_alarm_stop>
					button_event = 0;
  800894:	d0276315 	stw	zero,-25204(gp)
					camera_uart(2,*uart);
  800898:	e43fee17 	ldw	r16,-72(fp)
  80089c:	d809883a 	mov	r4,sp
  8008a0:	80800304 	addi	r2,r16,12
  8008a4:	00c01704 	movi	r3,92
  8008a8:	180d883a 	mov	r6,r3
  8008ac:	100b883a 	mov	r5,r2
  8008b0:	0803f980 	call	803f98 <memcpy>
  8008b4:	81400017 	ldw	r5,0(r16)
  8008b8:	81800117 	ldw	r6,4(r16)
  8008bc:	81c00217 	ldw	r7,8(r16)
  8008c0:	01000084 	movi	r4,2
  8008c4:	08012b80 	call	8012b8 <camera_uart>
					cam_count = 0;
  8008c8:	d0276415 	stw	zero,-25200(gp)
					snap_taken = 1;
				}
			}
			else if (vehicle_in == 0 && button_event == 1){
				// stop red light camera timer, print "Vehicle left" and camera time to uart
				if (cam_count != 0) {
  8008cc:	00001a06 	br	800938 <main+0x530>
					alt_alarm_stop(&timer2);
					button_event = 0;
					camera_uart(2,*uart);
					cam_count = 0;
				}
			} else if (vehicle_in == 1 && (cam_count >= predef_time) && snap_taken == 0 && entered_on_green == 0) {
  8008d0:	d0a76517 	ldw	r2,-25196(gp)
  8008d4:	10800058 	cmpnei	r2,r2,1
  8008d8:	103eea1e 	bne	r2,zero,800484 <__alt_mem_onchip_mem+0xff780484>
  8008dc:	d0e76417 	ldw	r3,-25200(gp)
  8008e0:	d0a00117 	ldw	r2,-32764(gp)
  8008e4:	18bee716 	blt	r3,r2,800484 <__alt_mem_onchip_mem+0xff780484>
  8008e8:	d0a76617 	ldw	r2,-25192(gp)
  8008ec:	103ee51e 	bne	r2,zero,800484 <__alt_mem_onchip_mem+0xff780484>
  8008f0:	d0a76817 	ldw	r2,-25184(gp)
  8008f4:	103ee31e 	bne	r2,zero,800484 <__alt_mem_onchip_mem+0xff780484>
				// if vehicle is still in the intersection after a predefined time (and the snapshot wasn't already taken), take a snapshot
				camera_uart(3,*uart);
  8008f8:	e43fee17 	ldw	r16,-72(fp)
  8008fc:	d809883a 	mov	r4,sp
  800900:	80800304 	addi	r2,r16,12
  800904:	00c01704 	movi	r3,92
  800908:	180d883a 	mov	r6,r3
  80090c:	100b883a 	mov	r5,r2
  800910:	0803f980 	call	803f98 <memcpy>
  800914:	81400017 	ldw	r5,0(r16)
  800918:	81800117 	ldw	r6,4(r16)
  80091c:	81c00217 	ldw	r7,8(r16)
  800920:	010000c4 	movi	r4,3
  800924:	08012b80 	call	8012b8 <camera_uart>
				snap_taken = 1;
  800928:	00800044 	movi	r2,1
  80092c:	d0a76615 	stw	r2,-25192(gp)
  800930:	003ed406 	br	800484 <__alt_mem_onchip_mem+0xff780484>
			} else if (state != RR && (READ_SWITCHES != 20 && READ_SWITCHES != 24 && READ_SWITCHES != 16)) {
				timeout_set = 0;
			}
		}
		if (mode == 4) { // MODE 4 ONLY
			if (vehicle_in == 1 && button_event == 1){
  800934:	0001883a 	nop
				// if vehicle is still in the intersection after a predefined time (and the snapshot wasn't already taken), take a snapshot
				camera_uart(3,*uart);
				snap_taken = 1;
			}
		}
	}
  800938:	003ed206 	br	800484 <__alt_mem_onchip_mem+0xff780484>

0080093c <change_mode>:
	return 0;
}

//////////////////////////////////////////////////////////// \\\\\\\\\\\\\\\\\\\\\\\\\\\\\\\\\\\\\\\\\\\\\\\\\\\\\\\\\\\\\\\

void change_mode(int temp_mode) {
  80093c:	defffe04 	addi	sp,sp,-8
  800940:	df000115 	stw	fp,4(sp)
  800944:	df000104 	addi	fp,sp,4
  800948:	e13fff15 	stw	r4,-4(fp)
	// change mode
	mode = temp_mode;
  80094c:	e0bfff17 	ldw	r2,-4(fp)
  800950:	d0a75a15 	stw	r2,-25240(gp)

	// reset all relevant global variables
	pedNS = 0;
  800954:	d0275d15 	stw	zero,-25228(gp)
	pedEW = 0;
  800958:	d0275e15 	stw	zero,-25224(gp)
	NShandled = 0;
  80095c:	d0275f15 	stw	zero,-25220(gp)
	EWhandled = 0;
  800960:	d0276015 	stw	zero,-25216(gp)
	NSraised = 0;
  800964:	d0276115 	stw	zero,-25212(gp)
	EWraised = 0;
  800968:	d0276215 	stw	zero,-25208(gp)
	button_event = 0;
  80096c:	d0276315 	stw	zero,-25204(gp)
	cam_count = 0;
  800970:	d0276415 	stw	zero,-25200(gp)
	vehicle_in = 0;
  800974:	d0276515 	stw	zero,-25196(gp)
	snap_taken = 0;
  800978:	d0276615 	stw	zero,-25192(gp)
	timer_event = 0;
  80097c:	d0276715 	stw	zero,-25188(gp)

	// if switching to mode 1 or 2, change back to default timeout values
	if (temp_mode == 1 || temp_mode == 2) {
  800980:	e0bfff17 	ldw	r2,-4(fp)
  800984:	10800060 	cmpeqi	r2,r2,1
  800988:	1000031e 	bne	r2,zero,800998 <change_mode+0x5c>
  80098c:	e0bfff17 	ldw	r2,-4(fp)
  800990:	10800098 	cmpnei	r2,r2,2
  800994:	10000d1e 	bne	r2,zero,8009cc <change_mode+0x90>
		T1 = 500;
  800998:	00807d04 	movi	r2,500
  80099c:	d0a00215 	stw	r2,-32760(gp)
		T2 = 6000;
  8009a0:	0085dc04 	movi	r2,6000
  8009a4:	d0a00315 	stw	r2,-32756(gp)
		T3 = 2000;
  8009a8:	0081f404 	movi	r2,2000
  8009ac:	d0a00415 	stw	r2,-32752(gp)
		T4 = 500;
  8009b0:	00807d04 	movi	r2,500
  8009b4:	d0a00515 	stw	r2,-32748(gp)
		T5 = 6000;
  8009b8:	0085dc04 	movi	r2,6000
  8009bc:	d0a00615 	stw	r2,-32744(gp)
		T6 = 2000;
  8009c0:	0081f404 	movi	r2,2000
  8009c4:	d0a00715 	stw	r2,-32740(gp)

		// timeout_set should not be reset if switching between modes 3 and 4
		// if it was reset in mode 3/4, new values would have to be entered right away when switching between modes if SW4 is still on
		timeout_set = 0;
  8009c8:	d0276915 	stw	zero,-25180(gp)
	}

}
  8009cc:	0001883a 	nop
  8009d0:	e037883a 	mov	sp,fp
  8009d4:	df000017 	ldw	fp,0(sp)
  8009d8:	dec00104 	addi	sp,sp,4
  8009dc:	f800283a 	ret

008009e0 <lcd_mode>:

// print to LCD
void lcd_mode(FILE *lcd) {
  8009e0:	defffd04 	addi	sp,sp,-12
  8009e4:	dfc00215 	stw	ra,8(sp)
  8009e8:	df000115 	stw	fp,4(sp)
  8009ec:	df000104 	addi	fp,sp,4
  8009f0:	e13fff15 	stw	r4,-4(fp)
	lcd = fopen(LCD_NAME, "w");
  8009f4:	01402074 	movhi	r5,129
  8009f8:	294c2004 	addi	r5,r5,12416
  8009fc:	01002074 	movhi	r4,129
  800a00:	210c2404 	addi	r4,r4,12432
  800a04:	08029340 	call	802934 <fopen>
  800a08:	e0bfff15 	stw	r2,-4(fp)

	if (mode == 0) {
  800a0c:	d0a75a17 	ldw	r2,-25240(gp)
  800a10:	10000e1e 	bne	r2,zero,800a4c <lcd_mode+0x6c>
		fprintf(lcd, "%c%s", ESC, CLEAR_LCD_STRING);
  800a14:	01c02074 	movhi	r7,129
  800a18:	39cc2704 	addi	r7,r7,12444
  800a1c:	018006c4 	movi	r6,27
  800a20:	01402074 	movhi	r5,129
  800a24:	294c2804 	addi	r5,r5,12448
  800a28:	e13fff17 	ldw	r4,-4(fp)
  800a2c:	08029740 	call	802974 <fprintf>
		fprintf(lcd, "Enter mode\n");
  800a30:	e1ffff17 	ldw	r7,-4(fp)
  800a34:	018002c4 	movi	r6,11
  800a38:	01400044 	movi	r5,1
  800a3c:	01002074 	movhi	r4,129
  800a40:	210c2a04 	addi	r4,r4,12456
  800a44:	080359c0 	call	80359c <fwrite>
  800a48:	00000d06 	br	800a80 <lcd_mode+0xa0>
	} else {
		fprintf(lcd, "%c%s", ESC, CLEAR_LCD_STRING);
  800a4c:	01c02074 	movhi	r7,129
  800a50:	39cc2704 	addi	r7,r7,12444
  800a54:	018006c4 	movi	r6,27
  800a58:	01402074 	movhi	r5,129
  800a5c:	294c2804 	addi	r5,r5,12448
  800a60:	e13fff17 	ldw	r4,-4(fp)
  800a64:	08029740 	call	802974 <fprintf>
		fprintf(lcd, "Mode: %d\n", mode);
  800a68:	d0a75a17 	ldw	r2,-25240(gp)
  800a6c:	100d883a 	mov	r6,r2
  800a70:	01402074 	movhi	r5,129
  800a74:	294c2d04 	addi	r5,r5,12468
  800a78:	e13fff17 	ldw	r4,-4(fp)
  800a7c:	08029740 	call	802974 <fprintf>
	}

	fclose(lcd);
  800a80:	e13fff17 	ldw	r4,-4(fp)
  800a84:	08020ec0 	call	8020ec <fclose>
}
  800a88:	0001883a 	nop
  800a8c:	e037883a 	mov	sp,fp
  800a90:	dfc00117 	ldw	ra,4(sp)
  800a94:	df000017 	ldw	fp,0(sp)
  800a98:	dec00204 	addi	sp,sp,8
  800a9c:	f800283a 	ret

00800aa0 <tlc_state_machine>:

// state machine for main traffic lights
int tlc_state_machine() {
  800aa0:	defffe04 	addi	sp,sp,-8
  800aa4:	df000115 	stw	fp,4(sp)
  800aa8:	df000104 	addi	fp,sp,4
	int next_time = 0;
  800aac:	e03fff15 	stw	zero,-4(fp)
	if (state == RR) {
  800ab0:	d0a75817 	ldw	r2,-25248(gp)
  800ab4:	1000271e 	bne	r2,zero,800b54 <tlc_state_machine+0xb4>
		if (prev_state == RY){
  800ab8:	d0a00017 	ldw	r2,-32768(gp)
  800abc:	10800118 	cmpnei	r2,r2,4
  800ac0:	1000101e 	bne	r2,zero,800b04 <tlc_state_machine+0x64>
			next_time = T2;
  800ac4:	d0a00317 	ldw	r2,-32756(gp)
  800ac8:	e0bfff15 	stw	r2,-4(fp)
			if ( pedNS == 0) {
  800acc:	d0a75d17 	ldw	r2,-25228(gp)
  800ad0:	1000031e 	bne	r2,zero,800ae0 <tlc_state_machine+0x40>
				state = GR;
  800ad4:	00800044 	movi	r2,1
  800ad8:	d0a75815 	stw	r2,-25248(gp)
  800adc:	00001b06 	br	800b4c <tlc_state_machine+0xac>
			} else if (mode != 1 && pedNS == 1) {
  800ae0:	d0a75a17 	ldw	r2,-25240(gp)
  800ae4:	10800060 	cmpeqi	r2,r2,1
  800ae8:	1000181e 	bne	r2,zero,800b4c <tlc_state_machine+0xac>
  800aec:	d0a75d17 	ldw	r2,-25228(gp)
  800af0:	10800058 	cmpnei	r2,r2,1
  800af4:	1000151e 	bne	r2,zero,800b4c <tlc_state_machine+0xac>
				state = GRP;
  800af8:	00800144 	movi	r2,5
  800afc:	d0a75815 	stw	r2,-25248(gp)
  800b00:	00001206 	br	800b4c <tlc_state_machine+0xac>
			}

		}
		else if (prev_state == YR){
  800b04:	d0a00017 	ldw	r2,-32768(gp)
  800b08:	10800098 	cmpnei	r2,r2,2
  800b0c:	10000f1e 	bne	r2,zero,800b4c <tlc_state_machine+0xac>
			next_time = T5;
  800b10:	d0a00617 	ldw	r2,-32744(gp)
  800b14:	e0bfff15 	stw	r2,-4(fp)
			if ( pedEW == 0) {
  800b18:	d0a75e17 	ldw	r2,-25224(gp)
  800b1c:	1000031e 	bne	r2,zero,800b2c <tlc_state_machine+0x8c>
				state = RG;
  800b20:	008000c4 	movi	r2,3
  800b24:	d0a75815 	stw	r2,-25248(gp)
  800b28:	00000806 	br	800b4c <tlc_state_machine+0xac>
			} else if ( mode!= 1 && pedEW == 1) {
  800b2c:	d0a75a17 	ldw	r2,-25240(gp)
  800b30:	10800060 	cmpeqi	r2,r2,1
  800b34:	1000051e 	bne	r2,zero,800b4c <tlc_state_machine+0xac>
  800b38:	d0a75e17 	ldw	r2,-25224(gp)
  800b3c:	10800058 	cmpnei	r2,r2,1
  800b40:	1000021e 	bne	r2,zero,800b4c <tlc_state_machine+0xac>
				state = RGP;
  800b44:	00800184 	movi	r2,6
  800b48:	d0a75815 	stw	r2,-25248(gp)
			}
		}
		prev_state = RR;
  800b4c:	d0200015 	stw	zero,-32768(gp)
  800b50:	00003f06 	br	800c50 <tlc_state_machine+0x1b0>
	} else if(state == GR){
  800b54:	d0a75817 	ldw	r2,-25248(gp)
  800b58:	10800058 	cmpnei	r2,r2,1
  800b5c:	1000071e 	bne	r2,zero,800b7c <tlc_state_machine+0xdc>
		next_time = T3;
  800b60:	d0a00417 	ldw	r2,-32752(gp)
  800b64:	e0bfff15 	stw	r2,-4(fp)
		state = YR;
  800b68:	00800084 	movi	r2,2
  800b6c:	d0a75815 	stw	r2,-25248(gp)
		prev_state = GR;
  800b70:	00800044 	movi	r2,1
  800b74:	d0a00015 	stw	r2,-32768(gp)
  800b78:	00003506 	br	800c50 <tlc_state_machine+0x1b0>
	}  else if(state == YR){
  800b7c:	d0a75817 	ldw	r2,-25248(gp)
  800b80:	10800098 	cmpnei	r2,r2,2
  800b84:	1000061e 	bne	r2,zero,800ba0 <tlc_state_machine+0x100>
		next_time = T4;
  800b88:	d0a00517 	ldw	r2,-32748(gp)
  800b8c:	e0bfff15 	stw	r2,-4(fp)
		state = RR;
  800b90:	d0275815 	stw	zero,-25248(gp)
		prev_state = YR;
  800b94:	00800084 	movi	r2,2
  800b98:	d0a00015 	stw	r2,-32768(gp)
  800b9c:	00002c06 	br	800c50 <tlc_state_machine+0x1b0>
	}  else if (state == RG){
  800ba0:	d0a75817 	ldw	r2,-25248(gp)
  800ba4:	108000d8 	cmpnei	r2,r2,3
  800ba8:	1000071e 	bne	r2,zero,800bc8 <tlc_state_machine+0x128>
		next_time = T6;
  800bac:	d0a00717 	ldw	r2,-32740(gp)
  800bb0:	e0bfff15 	stw	r2,-4(fp)
		state = RY;
  800bb4:	00800104 	movi	r2,4
  800bb8:	d0a75815 	stw	r2,-25248(gp)
		prev_state = RG;
  800bbc:	008000c4 	movi	r2,3
  800bc0:	d0a00015 	stw	r2,-32768(gp)
  800bc4:	00002206 	br	800c50 <tlc_state_machine+0x1b0>
	} else if (state == RY){
  800bc8:	d0a75817 	ldw	r2,-25248(gp)
  800bcc:	10800118 	cmpnei	r2,r2,4
  800bd0:	1000061e 	bne	r2,zero,800bec <tlc_state_machine+0x14c>
		next_time = T1;
  800bd4:	d0a00217 	ldw	r2,-32760(gp)
  800bd8:	e0bfff15 	stw	r2,-4(fp)
		state = RR;
  800bdc:	d0275815 	stw	zero,-25248(gp)
		prev_state = RY;
  800be0:	00800104 	movi	r2,4
  800be4:	d0a00015 	stw	r2,-32768(gp)
  800be8:	00001906 	br	800c50 <tlc_state_machine+0x1b0>
	} else if (state == GRP) {
  800bec:	d0a75817 	ldw	r2,-25248(gp)
  800bf0:	10800158 	cmpnei	r2,r2,5
  800bf4:	10000a1e 	bne	r2,zero,800c20 <tlc_state_machine+0x180>
		next_time = T3;
  800bf8:	d0a00417 	ldw	r2,-32752(gp)
  800bfc:	e0bfff15 	stw	r2,-4(fp)
		state = RY;
  800c00:	00800104 	movi	r2,4
  800c04:	d0a75815 	stw	r2,-25248(gp)
		prev_state = RGP;
  800c08:	00800184 	movi	r2,6
  800c0c:	d0a00015 	stw	r2,-32768(gp)
		NShandled = 1;
  800c10:	00800044 	movi	r2,1
  800c14:	d0a75f15 	stw	r2,-25220(gp)
		NSraised = 0;
  800c18:	d0276115 	stw	zero,-25212(gp)
  800c1c:	00000c06 	br	800c50 <tlc_state_machine+0x1b0>
	} else if (state == RGP) {
  800c20:	d0a75817 	ldw	r2,-25248(gp)
  800c24:	10800198 	cmpnei	r2,r2,6
  800c28:	1000091e 	bne	r2,zero,800c50 <tlc_state_machine+0x1b0>
		next_time = T6;
  800c2c:	d0a00717 	ldw	r2,-32740(gp)
  800c30:	e0bfff15 	stw	r2,-4(fp)
		state = RY;
  800c34:	00800104 	movi	r2,4
  800c38:	d0a75815 	stw	r2,-25248(gp)
		prev_state = RGP;
  800c3c:	00800184 	movi	r2,6
  800c40:	d0a00015 	stw	r2,-32768(gp)
		EWhandled = 1;
  800c44:	00800044 	movi	r2,1
  800c48:	d0a76015 	stw	r2,-25216(gp)
		EWraised = 0;
  800c4c:	d0276215 	stw	zero,-25208(gp)
	}

	// returns the next timer time for the new state
	return next_time;
  800c50:	e0bfff17 	ldw	r2,-4(fp)
}
  800c54:	e037883a 	mov	sp,fp
  800c58:	df000017 	ldw	fp,0(sp)
  800c5c:	dec00104 	addi	sp,sp,4
  800c60:	f800283a 	ret

00800c64 <switch_read_mode>:

int switch_read_mode() {
  800c64:	defffe04 	addi	sp,sp,-8
  800c68:	df000115 	stw	fp,4(sp)
  800c6c:	df000104 	addi	fp,sp,4
	unsigned int switchesValue = READ_SWITCHES;
  800c70:	00804434 	movhi	r2,272
  800c74:	10842404 	addi	r2,r2,4240
  800c78:	10c00037 	ldwio	r3,0(r2)
  800c7c:	00800134 	movhi	r2,4
  800c80:	10bfffc4 	addi	r2,r2,-1
  800c84:	10c5c83a 	sub	r2,r2,r3
  800c88:	e0bfff15 	stw	r2,-4(fp)
	if (switchesValue == 1) {
  800c8c:	e0bfff17 	ldw	r2,-4(fp)
  800c90:	10800058 	cmpnei	r2,r2,1
  800c94:	1000021e 	bne	r2,zero,800ca0 <switch_read_mode+0x3c>
		return 1;
  800c98:	00800044 	movi	r2,1
  800c9c:	00001606 	br	800cf8 <switch_read_mode+0x94>
	} else if (switchesValue == 2) {
  800ca0:	e0bfff17 	ldw	r2,-4(fp)
  800ca4:	10800098 	cmpnei	r2,r2,2
  800ca8:	1000021e 	bne	r2,zero,800cb4 <switch_read_mode+0x50>
		return 2;
  800cac:	00800084 	movi	r2,2
  800cb0:	00001106 	br	800cf8 <switch_read_mode+0x94>
	} else if (switchesValue == 4 || switchesValue == 20) {
  800cb4:	e0bfff17 	ldw	r2,-4(fp)
  800cb8:	10800120 	cmpeqi	r2,r2,4
  800cbc:	1000031e 	bne	r2,zero,800ccc <switch_read_mode+0x68>
  800cc0:	e0bfff17 	ldw	r2,-4(fp)
  800cc4:	10800518 	cmpnei	r2,r2,20
  800cc8:	1000021e 	bne	r2,zero,800cd4 <switch_read_mode+0x70>
		return 3;
  800ccc:	008000c4 	movi	r2,3
  800cd0:	00000906 	br	800cf8 <switch_read_mode+0x94>
	} else if (switchesValue == 8 || switchesValue == 24) {
  800cd4:	e0bfff17 	ldw	r2,-4(fp)
  800cd8:	10800220 	cmpeqi	r2,r2,8
  800cdc:	1000031e 	bne	r2,zero,800cec <switch_read_mode+0x88>
  800ce0:	e0bfff17 	ldw	r2,-4(fp)
  800ce4:	10800618 	cmpnei	r2,r2,24
  800ce8:	1000021e 	bne	r2,zero,800cf4 <switch_read_mode+0x90>
		return 4;
  800cec:	00800104 	movi	r2,4
  800cf0:	00000106 	br	800cf8 <switch_read_mode+0x94>
	} else {
		return 0;
  800cf4:	0005883a 	mov	r2,zero
	}
}
  800cf8:	e037883a 	mov	sp,fp
  800cfc:	df000017 	ldw	fp,0(sp)
  800d00:	dec00104 	addi	sp,sp,4
  800d04:	f800283a 	ret

00800d08 <simple_tlc_leds>:

// MODE 1 FUNCTIONS

// set the LEDs based on the state
void simple_tlc_leds() {
  800d08:	deffff04 	addi	sp,sp,-4
  800d0c:	df000015 	stw	fp,0(sp)
  800d10:	d839883a 	mov	fp,sp

		if (state == RR){
  800d14:	d0a75817 	ldw	r2,-25248(gp)
  800d18:	1000051e 	bne	r2,zero,800d30 <simple_tlc_leds+0x28>
			RR_LED;
  800d1c:	00c00904 	movi	r3,36
  800d20:	00804434 	movhi	r2,272
  800d24:	10841c04 	addi	r2,r2,4208
  800d28:	10c00035 	stwio	r3,0(r2)
			RGP_LED;
		}
		else if (state == RY){
			RY_LED;
		}
}
  800d2c:	00002f06 	br	800dec <simple_tlc_leds+0xe4>
void simple_tlc_leds() {

		if (state == RR){
			RR_LED;
		}
		else if(state == GR){
  800d30:	d0a75817 	ldw	r2,-25248(gp)
  800d34:	10800058 	cmpnei	r2,r2,1
  800d38:	1000051e 	bne	r2,zero,800d50 <simple_tlc_leds+0x48>
			GR_LED;
  800d3c:	00c00844 	movi	r3,33
  800d40:	00804434 	movhi	r2,272
  800d44:	10841c04 	addi	r2,r2,4208
  800d48:	10c00035 	stwio	r3,0(r2)
			RGP_LED;
		}
		else if (state == RY){
			RY_LED;
		}
}
  800d4c:	00002706 	br	800dec <simple_tlc_leds+0xe4>
			RR_LED;
		}
		else if(state == GR){
			GR_LED;
		}
		else if (state == GRP) {
  800d50:	d0a75817 	ldw	r2,-25248(gp)
  800d54:	10800158 	cmpnei	r2,r2,5
  800d58:	1000051e 	bne	r2,zero,800d70 <simple_tlc_leds+0x68>
			GRP_LED;
  800d5c:	00c01844 	movi	r3,97
  800d60:	00804434 	movhi	r2,272
  800d64:	10841c04 	addi	r2,r2,4208
  800d68:	10c00035 	stwio	r3,0(r2)
			RGP_LED;
		}
		else if (state == RY){
			RY_LED;
		}
}
  800d6c:	00001f06 	br	800dec <simple_tlc_leds+0xe4>
			GR_LED;
		}
		else if (state == GRP) {
			GRP_LED;
		}
		else if(state == YR){
  800d70:	d0a75817 	ldw	r2,-25248(gp)
  800d74:	10800098 	cmpnei	r2,r2,2
  800d78:	1000051e 	bne	r2,zero,800d90 <simple_tlc_leds+0x88>
			YR_LED;
  800d7c:	00c00884 	movi	r3,34
  800d80:	00804434 	movhi	r2,272
  800d84:	10841c04 	addi	r2,r2,4208
  800d88:	10c00035 	stwio	r3,0(r2)
			RGP_LED;
		}
		else if (state == RY){
			RY_LED;
		}
}
  800d8c:	00001706 	br	800dec <simple_tlc_leds+0xe4>
			GRP_LED;
		}
		else if(state == YR){
			YR_LED;
		}
		else if (state == RG){
  800d90:	d0a75817 	ldw	r2,-25248(gp)
  800d94:	108000d8 	cmpnei	r2,r2,3
  800d98:	1000051e 	bne	r2,zero,800db0 <simple_tlc_leds+0xa8>
			RG_LED;
  800d9c:	00c00304 	movi	r3,12
  800da0:	00804434 	movhi	r2,272
  800da4:	10841c04 	addi	r2,r2,4208
  800da8:	10c00035 	stwio	r3,0(r2)
			RGP_LED;
		}
		else if (state == RY){
			RY_LED;
		}
}
  800dac:	00000f06 	br	800dec <simple_tlc_leds+0xe4>
			YR_LED;
		}
		else if (state == RG){
			RG_LED;
		}
		else if (state == RGP){
  800db0:	d0a75817 	ldw	r2,-25248(gp)
  800db4:	10800198 	cmpnei	r2,r2,6
  800db8:	1000051e 	bne	r2,zero,800dd0 <simple_tlc_leds+0xc8>
			RGP_LED;
  800dbc:	00c02304 	movi	r3,140
  800dc0:	00804434 	movhi	r2,272
  800dc4:	10841c04 	addi	r2,r2,4208
  800dc8:	10c00035 	stwio	r3,0(r2)
		}
		else if (state == RY){
			RY_LED;
		}
}
  800dcc:	00000706 	br	800dec <simple_tlc_leds+0xe4>
			RG_LED;
		}
		else if (state == RGP){
			RGP_LED;
		}
		else if (state == RY){
  800dd0:	d0a75817 	ldw	r2,-25248(gp)
  800dd4:	10800118 	cmpnei	r2,r2,4
  800dd8:	1000041e 	bne	r2,zero,800dec <simple_tlc_leds+0xe4>
			RY_LED;
  800ddc:	00c00504 	movi	r3,20
  800de0:	00804434 	movhi	r2,272
  800de4:	10841c04 	addi	r2,r2,4208
  800de8:	10c00035 	stwio	r3,0(r2)
		}
}
  800dec:	0001883a 	nop
  800df0:	e037883a 	mov	sp,fp
  800df4:	df000017 	ldw	fp,0(sp)
  800df8:	dec00104 	addi	sp,sp,4
  800dfc:	f800283a 	ret

00800e00 <init_buttons_pio>:

// MODE 2 FUNCTIONS


void init_buttons_pio(int enable, void* context_going_to_be_passed) {
  800e00:	defffc04 	addi	sp,sp,-16
  800e04:	dfc00315 	stw	ra,12(sp)
  800e08:	df000215 	stw	fp,8(sp)
  800e0c:	df000204 	addi	fp,sp,8
  800e10:	e13ffe15 	stw	r4,-8(fp)
  800e14:	e17fff15 	stw	r5,-4(fp)
	// clear the edge capture register
	IOWR_ALTERA_AVALON_PIO_EDGE_CAP(BUTTONS_BASE, 0);
  800e18:	0007883a 	mov	r3,zero
  800e1c:	00804434 	movhi	r2,272
  800e20:	10842b04 	addi	r2,r2,4268
  800e24:	10c00035 	stwio	r3,0(r2)
	// enables/disables interrupts for all buttons
	if (enable == 1) {
  800e28:	e0bffe17 	ldw	r2,-8(fp)
  800e2c:	10800058 	cmpnei	r2,r2,1
  800e30:	1000051e 	bne	r2,zero,800e48 <init_buttons_pio+0x48>
		IOWR_ALTERA_AVALON_PIO_IRQ_MASK(BUTTONS_BASE, 0x7);
  800e34:	00c001c4 	movi	r3,7
  800e38:	00804434 	movhi	r2,272
  800e3c:	10842a04 	addi	r2,r2,4264
  800e40:	10c00035 	stwio	r3,0(r2)
  800e44:	00000406 	br	800e58 <init_buttons_pio+0x58>
	} else {
		IOWR_ALTERA_AVALON_PIO_IRQ_MASK(BUTTONS_BASE, 0x0);
  800e48:	0007883a 	mov	r3,zero
  800e4c:	00804434 	movhi	r2,272
  800e50:	10842a04 	addi	r2,r2,4264
  800e54:	10c00035 	stwio	r3,0(r2)
	}
	// register the ISR
	alt_irq_register(BUTTONS_IRQ,context_going_to_be_passed,button_isr);
  800e58:	01802034 	movhi	r6,128
  800e5c:	3180c204 	addi	r6,r6,776
  800e60:	e17fff17 	ldw	r5,-4(fp)
  800e64:	01000104 	movi	r4,4
  800e68:	080f11c0 	call	80f11c <alt_irq_register>
}
  800e6c:	0001883a 	nop
  800e70:	e037883a 	mov	sp,fp
  800e74:	dfc00117 	ldw	ra,4(sp)
  800e78:	df000017 	ldw	fp,0(sp)
  800e7c:	dec00204 	addi	sp,sp,8
  800e80:	f800283a 	ret

00800e84 <pedestrian_tlc>:

// state machine(s) for pedestrian lights
void pedestrian_tlc() {
  800e84:	deffff04 	addi	sp,sp,-4
  800e88:	df000015 	stw	fp,0(sp)
  800e8c:	d839883a 	mov	fp,sp

	if (NSstate == IDLE && NSraised == 1) {
  800e90:	d0a75b17 	ldw	r2,-25236(gp)
  800e94:	1000081e 	bne	r2,zero,800eb8 <pedestrian_tlc+0x34>
  800e98:	d0a76117 	ldw	r2,-25212(gp)
  800e9c:	10800058 	cmpnei	r2,r2,1
  800ea0:	1000051e 	bne	r2,zero,800eb8 <pedestrian_tlc+0x34>
		NSstate = NSP;
  800ea4:	00800044 	movi	r2,1
  800ea8:	d0a75b15 	stw	r2,-25236(gp)
		pedNS = 1;
  800eac:	00800044 	movi	r2,1
  800eb0:	d0a75d15 	stw	r2,-25228(gp)
  800eb4:	00000806 	br	800ed8 <pedestrian_tlc+0x54>
	} else if (NSstate == NSP && NShandled == 1) {
  800eb8:	d0a75b17 	ldw	r2,-25236(gp)
  800ebc:	10800058 	cmpnei	r2,r2,1
  800ec0:	1000051e 	bne	r2,zero,800ed8 <pedestrian_tlc+0x54>
  800ec4:	d0a75f17 	ldw	r2,-25220(gp)
  800ec8:	10800058 	cmpnei	r2,r2,1
  800ecc:	1000021e 	bne	r2,zero,800ed8 <pedestrian_tlc+0x54>
		NSstate = IDLE;
  800ed0:	d0275b15 	stw	zero,-25236(gp)
		pedNS = 0;
  800ed4:	d0275d15 	stw	zero,-25228(gp)
	}

	if (EWstate == IDLE && EWraised == 1) {
  800ed8:	d0a75c17 	ldw	r2,-25232(gp)
  800edc:	1000081e 	bne	r2,zero,800f00 <pedestrian_tlc+0x7c>
  800ee0:	d0a76217 	ldw	r2,-25208(gp)
  800ee4:	10800058 	cmpnei	r2,r2,1
  800ee8:	1000051e 	bne	r2,zero,800f00 <pedestrian_tlc+0x7c>
		EWstate = EWP;
  800eec:	00800084 	movi	r2,2
  800ef0:	d0a75c15 	stw	r2,-25232(gp)
		pedEW = 1;
  800ef4:	00800044 	movi	r2,1
  800ef8:	d0a75e15 	stw	r2,-25224(gp)
	} else if (EWstate == EWP && EWhandled == 1) {
		EWstate = IDLE;
		pedEW = 0;
	}

}
  800efc:	00000806 	br	800f20 <pedestrian_tlc+0x9c>
	}

	if (EWstate == IDLE && EWraised == 1) {
		EWstate = EWP;
		pedEW = 1;
	} else if (EWstate == EWP && EWhandled == 1) {
  800f00:	d0a75c17 	ldw	r2,-25232(gp)
  800f04:	10800098 	cmpnei	r2,r2,2
  800f08:	1000051e 	bne	r2,zero,800f20 <pedestrian_tlc+0x9c>
  800f0c:	d0a76017 	ldw	r2,-25216(gp)
  800f10:	10800058 	cmpnei	r2,r2,1
  800f14:	1000021e 	bne	r2,zero,800f20 <pedestrian_tlc+0x9c>
		EWstate = IDLE;
  800f18:	d0275c15 	stw	zero,-25232(gp)
		pedEW = 0;
  800f1c:	d0275e15 	stw	zero,-25224(gp)
	}

}
  800f20:	0001883a 	nop
  800f24:	e037883a 	mov	sp,fp
  800f28:	df000017 	ldw	fp,0(sp)
  800f2c:	dec00104 	addi	sp,sp,4
  800f30:	f800283a 	ret

00800f34 <timeout_data_handler>:



// MODE 3 FUNCTIONS

int timeout_data_handler(FILE *uart) {
  800f34:	deffe504 	addi	sp,sp,-108
  800f38:	dfc01a15 	stw	ra,104(sp)
  800f3c:	df001915 	stw	fp,100(sp)
  800f40:	df001904 	addi	fp,sp,100
  800f44:	e13fff15 	stw	r4,-4(fp)
	printf("Waiting for new timeout values...\n");
  800f48:	01002074 	movhi	r4,129
  800f4c:	210c3004 	addi	r4,r4,12480
  800f50:	080451c0 	call	80451c <puts>
	uart = fopen(UART_NAME, "w");
  800f54:	01402074 	movhi	r5,129
  800f58:	294c2004 	addi	r5,r5,12416
  800f5c:	01002074 	movhi	r4,129
  800f60:	210c2104 	addi	r4,r4,12420
  800f64:	08029340 	call	802934 <fopen>
  800f68:	e0bfff15 	stw	r2,-4(fp)
	fprintf(uart,"Enter new timeout values... \r\n");
  800f6c:	e1ffff17 	ldw	r7,-4(fp)
  800f70:	01800784 	movi	r6,30
  800f74:	01400044 	movi	r5,1
  800f78:	01002074 	movhi	r4,129
  800f7c:	210c3904 	addi	r4,r4,12516
  800f80:	080359c0 	call	80359c <fwrite>
	fclose(uart);
  800f84:	e13fff17 	ldw	r4,-4(fp)
  800f88:	08020ec0 	call	8020ec <fclose>
	uart = fopen(UART_NAME, "r");
  800f8c:	01402074 	movhi	r5,129
  800f90:	294c4104 	addi	r5,r5,12548
  800f94:	01002074 	movhi	r4,129
  800f98:	210c2104 	addi	r4,r4,12420
  800f9c:	08029340 	call	802934 <fopen>
  800fa0:	e0bfff15 	stw	r2,-4(fp)
	char data_array[35];
	// format: #,#,#,#,#,#[\r]\n
	// where # is a 1-4 digit integer
	// \r is ignored (and may or may-not be received)

	int current_char = 0;
  800fa4:	e03feb15 	stw	zero,-84(fp)
	int previous_char = 0;
  800fa8:	e03fec15 	stw	zero,-80(fp)
	int i = 0;
  800fac:	e03fed15 	stw	zero,-76(fp)

	printf("Input: ");
  800fb0:	01002074 	movhi	r4,129
  800fb4:	210c4204 	addi	r4,r4,12552
  800fb8:	08042980 	call	804298 <printf>



	// get values until "\n" entered
	while ((current_char != 'n' || previous_char != '\\') && current_char != 10) { // will terminate if an actual new line character is entered (ascii 10), or if a '\', followed by a 'n' is entered
  800fbc:	00002606 	br	801058 <timeout_data_handler+0x124>
		if (i > 34) { // too many values entered,
  800fc0:	e0bfed17 	ldw	r2,-76(fp)
  800fc4:	108008d0 	cmplti	r2,r2,35
  800fc8:	1000131e 	bne	r2,zero,801018 <timeout_data_handler+0xe4>
			uart = fopen(UART_NAME, "w");
  800fcc:	01402074 	movhi	r5,129
  800fd0:	294c2004 	addi	r5,r5,12416
  800fd4:	01002074 	movhi	r4,129
  800fd8:	210c2104 	addi	r4,r4,12420
  800fdc:	08029340 	call	802934 <fopen>
  800fe0:	e0bfff15 	stw	r2,-4(fp)
			fprintf(uart,"\r\nToo many Timeout Values, please enter new ones.\r\n");
  800fe4:	e1ffff17 	ldw	r7,-4(fp)
  800fe8:	01800cc4 	movi	r6,51
  800fec:	01400044 	movi	r5,1
  800ff0:	01002074 	movhi	r4,129
  800ff4:	210c4404 	addi	r4,r4,12560
  800ff8:	080359c0 	call	80359c <fwrite>
			fclose(uart);
  800ffc:	e13fff17 	ldw	r4,-4(fp)
  801000:	08020ec0 	call	8020ec <fclose>
			printf("\nToo many Timeout Values, please enter new ones. \n");
  801004:	01002074 	movhi	r4,129
  801008:	210c5104 	addi	r4,r4,12612
  80100c:	080451c0 	call	80451c <puts>
			return 1;
  801010:	00800044 	movi	r2,1
  801014:	0000a306 	br	8012a4 <timeout_data_handler+0x370>
		}
		printf("%c",current_char);
  801018:	e13feb17 	ldw	r4,-84(fp)
  80101c:	08044440 	call	804444 <putchar>
		previous_char = current_char;
  801020:	e0bfeb17 	ldw	r2,-84(fp)
  801024:	e0bfec15 	stw	r2,-80(fp)
		current_char = fgetc(uart);
  801028:	e13fff17 	ldw	r4,-4(fp)
  80102c:	08024180 	call	802418 <fgetc>
  801030:	e0bfeb15 	stw	r2,-84(fp)
		data_array[i] = (char)current_char;
  801034:	e0bfeb17 	ldw	r2,-84(fp)
  801038:	1009883a 	mov	r4,r2
  80103c:	e0ffef04 	addi	r3,fp,-68
  801040:	e0bfed17 	ldw	r2,-76(fp)
  801044:	1885883a 	add	r2,r3,r2
  801048:	11000005 	stb	r4,0(r2)
		i++;
  80104c:	e0bfed17 	ldw	r2,-76(fp)
  801050:	10800044 	addi	r2,r2,1
  801054:	e0bfed15 	stw	r2,-76(fp)
	printf("Input: ");



	// get values until "\n" entered
	while ((current_char != 'n' || previous_char != '\\') && current_char != 10) { // will terminate if an actual new line character is entered (ascii 10), or if a '\', followed by a 'n' is entered
  801058:	e0bfeb17 	ldw	r2,-84(fp)
  80105c:	10801b98 	cmpnei	r2,r2,110
  801060:	1000031e 	bne	r2,zero,801070 <timeout_data_handler+0x13c>
  801064:	e0bfec17 	ldw	r2,-80(fp)
  801068:	10801720 	cmpeqi	r2,r2,92
  80106c:	1000031e 	bne	r2,zero,80107c <timeout_data_handler+0x148>
  801070:	e0bfeb17 	ldw	r2,-84(fp)
  801074:	10800298 	cmpnei	r2,r2,10
  801078:	103fd11e 	bne	r2,zero,800fc0 <__alt_mem_onchip_mem+0xff780fc0>
		previous_char = current_char;
		current_char = fgetc(uart);
		data_array[i] = (char)current_char;
		i++;
	}
	fclose(uart);
  80107c:	e13fff17 	ldw	r4,-4(fp)
  801080:	08020ec0 	call	8020ec <fclose>

	printf("%c",current_char);
  801084:	e13feb17 	ldw	r4,-84(fp)
  801088:	08044440 	call	804444 <putchar>
	printf("\n");
  80108c:	01000284 	movi	r4,10
  801090:	08044440 	call	804444 <putchar>

	const char s[2] = ",";
  801094:	00800b04 	movi	r2,44
  801098:	e0bff7c5 	stb	r2,-33(fp)
  80109c:	e03ff805 	stb	zero,-32(fp)

	char *token = strtok(data_array,s);
  8010a0:	e0fff7c4 	addi	r3,fp,-33
  8010a4:	e0bfef04 	addi	r2,fp,-68
  8010a8:	180b883a 	mov	r5,r3
  8010ac:	1009883a 	mov	r4,r2
  8010b0:	08049d00 	call	8049d0 <strtok>
  8010b4:	e0bfee15 	stw	r2,-72(fp)

	int temp[6];

	i = 0;
  8010b8:	e03fed15 	stw	zero,-76(fp)

	// split input by ","
	while(token != NULL) {
  8010bc:	00001206 	br	801108 <timeout_data_handler+0x1d4>
		temp[i] = atoi(token);
  8010c0:	e13fee17 	ldw	r4,-72(fp)
  8010c4:	0801fe40 	call	801fe4 <atoi>
  8010c8:	1007883a 	mov	r3,r2
  8010cc:	e0bfed17 	ldw	r2,-76(fp)
  8010d0:	1085883a 	add	r2,r2,r2
  8010d4:	1085883a 	add	r2,r2,r2
  8010d8:	e13feb04 	addi	r4,fp,-84
  8010dc:	2085883a 	add	r2,r4,r2
  8010e0:	10800e04 	addi	r2,r2,56
  8010e4:	10c00015 	stw	r3,0(r2)
		token = strtok(NULL, s);
  8010e8:	e0bff7c4 	addi	r2,fp,-33
  8010ec:	100b883a 	mov	r5,r2
  8010f0:	0009883a 	mov	r4,zero
  8010f4:	08049d00 	call	8049d0 <strtok>
  8010f8:	e0bfee15 	stw	r2,-72(fp)
		i++;
  8010fc:	e0bfed17 	ldw	r2,-76(fp)
  801100:	10800044 	addi	r2,r2,1
  801104:	e0bfed15 	stw	r2,-76(fp)
	int temp[6];

	i = 0;

	// split input by ","
	while(token != NULL) {
  801108:	e0bfee17 	ldw	r2,-72(fp)
  80110c:	103fec1e 	bne	r2,zero,8010c0 <__alt_mem_onchip_mem+0xff7810c0>
		i++;
	}


	// return 1 (i.e. start the function again) if character is invalid)
	for (i = 0; i < 6; i++) {
  801110:	e03fed15 	stw	zero,-76(fp)
  801114:	00002f06 	br	8011d4 <timeout_data_handler+0x2a0>
		if (temp[i] <= 0 || temp[i] >= 10000 || temp[i] == NULL) {
  801118:	e0bfed17 	ldw	r2,-76(fp)
  80111c:	1085883a 	add	r2,r2,r2
  801120:	1085883a 	add	r2,r2,r2
  801124:	e0ffeb04 	addi	r3,fp,-84
  801128:	1885883a 	add	r2,r3,r2
  80112c:	10800e04 	addi	r2,r2,56
  801130:	10800017 	ldw	r2,0(r2)
  801134:	0080110e 	bge	zero,r2,80117c <timeout_data_handler+0x248>
  801138:	e0bfed17 	ldw	r2,-76(fp)
  80113c:	1085883a 	add	r2,r2,r2
  801140:	1085883a 	add	r2,r2,r2
  801144:	e13feb04 	addi	r4,fp,-84
  801148:	2085883a 	add	r2,r4,r2
  80114c:	10800e04 	addi	r2,r2,56
  801150:	10800017 	ldw	r2,0(r2)
  801154:	1089c408 	cmpgei	r2,r2,10000
  801158:	1000081e 	bne	r2,zero,80117c <timeout_data_handler+0x248>
  80115c:	e0bfed17 	ldw	r2,-76(fp)
  801160:	1085883a 	add	r2,r2,r2
  801164:	1085883a 	add	r2,r2,r2
  801168:	e0ffeb04 	addi	r3,fp,-84
  80116c:	1885883a 	add	r2,r3,r2
  801170:	10800e04 	addi	r2,r2,56
  801174:	10800017 	ldw	r2,0(r2)
  801178:	1000131e 	bne	r2,zero,8011c8 <timeout_data_handler+0x294>
			uart = fopen(UART_NAME, "w");
  80117c:	01402074 	movhi	r5,129
  801180:	294c2004 	addi	r5,r5,12416
  801184:	01002074 	movhi	r4,129
  801188:	210c2104 	addi	r4,r4,12420
  80118c:	08029340 	call	802934 <fopen>
  801190:	e0bfff15 	stw	r2,-4(fp)
			fprintf(uart,"\r\nBad Timeout Values, please enter new ones.\r\n");
  801194:	e1ffff17 	ldw	r7,-4(fp)
  801198:	01800b84 	movi	r6,46
  80119c:	01400044 	movi	r5,1
  8011a0:	01002074 	movhi	r4,129
  8011a4:	210c5e04 	addi	r4,r4,12664
  8011a8:	080359c0 	call	80359c <fwrite>
			fclose(uart);
  8011ac:	e13fff17 	ldw	r4,-4(fp)
  8011b0:	08020ec0 	call	8020ec <fclose>
			printf("Bad Timeout Values, please enter new ones. \n");
  8011b4:	01002074 	movhi	r4,129
  8011b8:	210c6a04 	addi	r4,r4,12712
  8011bc:	080451c0 	call	80451c <puts>
			return 1;
  8011c0:	00800044 	movi	r2,1
  8011c4:	00003706 	br	8012a4 <timeout_data_handler+0x370>
		i++;
	}


	// return 1 (i.e. start the function again) if character is invalid)
	for (i = 0; i < 6; i++) {
  8011c8:	e0bfed17 	ldw	r2,-76(fp)
  8011cc:	10800044 	addi	r2,r2,1
  8011d0:	e0bfed15 	stw	r2,-76(fp)
  8011d4:	e0bfed17 	ldw	r2,-76(fp)
  8011d8:	10800190 	cmplti	r2,r2,6
  8011dc:	103fce1e 	bne	r2,zero,801118 <__alt_mem_onchip_mem+0xff781118>
		}
	}

	// set timeouts

	T1 = temp[0];
  8011e0:	e0bff917 	ldw	r2,-28(fp)
  8011e4:	d0a00215 	stw	r2,-32760(gp)
	T2 = temp[1];
  8011e8:	e0bffa17 	ldw	r2,-24(fp)
  8011ec:	d0a00315 	stw	r2,-32756(gp)
	T3 = temp[2];
  8011f0:	e0bffb17 	ldw	r2,-20(fp)
  8011f4:	d0a00415 	stw	r2,-32752(gp)
	T4 = temp[3];
  8011f8:	e0bffc17 	ldw	r2,-16(fp)
  8011fc:	d0a00515 	stw	r2,-32748(gp)
	T5 = temp[4];
  801200:	e0bffd17 	ldw	r2,-12(fp)
  801204:	d0a00615 	stw	r2,-32744(gp)
	T6 = temp[5];
  801208:	e0bffe17 	ldw	r2,-8(fp)
  80120c:	d0a00715 	stw	r2,-32740(gp)
	timeout_set = 1;
  801210:	00800044 	movi	r2,1
  801214:	d0a76915 	stw	r2,-25180(gp)

	uart = fopen(UART_NAME, "w");
  801218:	01402074 	movhi	r5,129
  80121c:	294c2004 	addi	r5,r5,12416
  801220:	01002074 	movhi	r4,129
  801224:	210c2104 	addi	r4,r4,12420
  801228:	08029340 	call	802934 <fopen>
  80122c:	e0bfff15 	stw	r2,-4(fp)
	fprintf(uart,"T1: %d, T2: %d, T3: %d, T4: %d, T5: %d, T6: %d\r\n\n", T1, T2, T3, T4, T5, T6);
  801230:	d1a00217 	ldw	r6,-32760(gp)
  801234:	d1e00317 	ldw	r7,-32756(gp)
  801238:	d0a00417 	ldw	r2,-32752(gp)
  80123c:	d0e00517 	ldw	r3,-32748(gp)
  801240:	d1200617 	ldw	r4,-32744(gp)
  801244:	d1600717 	ldw	r5,-32740(gp)
  801248:	d9400315 	stw	r5,12(sp)
  80124c:	d9000215 	stw	r4,8(sp)
  801250:	d8c00115 	stw	r3,4(sp)
  801254:	d8800015 	stw	r2,0(sp)
  801258:	01402074 	movhi	r5,129
  80125c:	294c7504 	addi	r5,r5,12756
  801260:	e13fff17 	ldw	r4,-4(fp)
  801264:	08029740 	call	802974 <fprintf>
	fclose(uart);
  801268:	e13fff17 	ldw	r4,-4(fp)
  80126c:	08020ec0 	call	8020ec <fclose>

	printf("New Timeout Values -  T1: %d, T2: %d, T3: %d, T4: %d, T5: %d, T6: %d\n", T1, T2, T3, T4, T5, T6);
  801270:	d1600217 	ldw	r5,-32760(gp)
  801274:	d1a00317 	ldw	r6,-32756(gp)
  801278:	d1e00417 	ldw	r7,-32752(gp)
  80127c:	d0a00517 	ldw	r2,-32748(gp)
  801280:	d0e00617 	ldw	r3,-32744(gp)
  801284:	d1200717 	ldw	r4,-32740(gp)
  801288:	d9000215 	stw	r4,8(sp)
  80128c:	d8c00115 	stw	r3,4(sp)
  801290:	d8800015 	stw	r2,0(sp)
  801294:	01002074 	movhi	r4,129
  801298:	210c8204 	addi	r4,r4,12808
  80129c:	08042980 	call	804298 <printf>

	return 0;
  8012a0:	0005883a 	mov	r2,zero
}
  8012a4:	e037883a 	mov	sp,fp
  8012a8:	dfc00117 	ldw	ra,4(sp)
  8012ac:	df000017 	ldw	fp,0(sp)
  8012b0:	dec00204 	addi	sp,sp,8
  8012b4:	f800283a 	ret

008012b8 <camera_uart>:


// MODE 4 FUNCTIONS

void camera_uart(int s,FILE *uart){
  8012b8:	defffc04 	addi	sp,sp,-16
  8012bc:	dfc00315 	stw	ra,12(sp)
  8012c0:	df000215 	stw	fp,8(sp)
  8012c4:	df000204 	addi	fp,sp,8
  8012c8:	e13ffe15 	stw	r4,-8(fp)
  8012cc:	e17fff15 	stw	r5,-4(fp)
	uart = fopen(UART_NAME, "w");
  8012d0:	01402074 	movhi	r5,129
  8012d4:	294c2004 	addi	r5,r5,12416
  8012d8:	01002074 	movhi	r4,129
  8012dc:	210c2104 	addi	r4,r4,12420
  8012e0:	08029340 	call	802934 <fopen>
  8012e4:	e0bfff15 	stw	r2,-4(fp)

	// formatting looks ugly here but good on PuTTY

	printf("entered_on_green: %d", entered_on_green);
  8012e8:	d0a76817 	ldw	r2,-25184(gp)
  8012ec:	100b883a 	mov	r5,r2
  8012f0:	01002074 	movhi	r4,129
  8012f4:	210c9404 	addi	r4,r4,12880
  8012f8:	08042980 	call	804298 <printf>

	if (s == 1){
  8012fc:	e0bffe17 	ldw	r2,-8(fp)
  801300:	10800058 	cmpnei	r2,r2,1
  801304:	1000071e 	bne	r2,zero,801324 <camera_uart+0x6c>
		fprintf(uart,"    ---- Camera Activated ----    \r\n\n");
  801308:	e1ffff17 	ldw	r7,-4(fp)
  80130c:	01800944 	movi	r6,37
  801310:	01400044 	movi	r5,1
  801314:	01002074 	movhi	r4,129
  801318:	210c9a04 	addi	r4,r4,12904
  80131c:	080359c0 	call	80359c <fwrite>
  801320:	00003106 	br	8013e8 <camera_uart+0x130>

	}
	else if(s == 2){
  801324:	e0bffe17 	ldw	r2,-8(fp)
  801328:	10800098 	cmpnei	r2,r2,2
  80132c:	10001b1e 	bne	r2,zero,80139c <camera_uart+0xe4>
		fprintf(uart,"      ---- Vehicle Left ----    \r\n");
  801330:	e1ffff17 	ldw	r7,-4(fp)
  801334:	01800884 	movi	r6,34
  801338:	01400044 	movi	r5,1
  80133c:	01002074 	movhi	r4,129
  801340:	210ca404 	addi	r4,r4,12944
  801344:	080359c0 	call	80359c <fwrite>
		// cam_count is the amount of 10s of ms that have passed, so divide by 10 to display in seconds
		fprintf(uart,"  Vehicle left after %.2f seconds    \r\n\n\n",((double)cam_count)/100);
  801348:	d0a76417 	ldw	r2,-25200(gp)
  80134c:	1009883a 	mov	r4,r2
  801350:	0801cf00 	call	801cf0 <__floatsidf>
  801354:	1011883a 	mov	r8,r2
  801358:	1813883a 	mov	r9,r3
  80135c:	000d883a 	mov	r6,zero
  801360:	01d01674 	movhi	r7,16473
  801364:	4009883a 	mov	r4,r8
  801368:	480b883a 	mov	r5,r9
  80136c:	08014080 	call	801408 <__divdf3>
  801370:	1009883a 	mov	r4,r2
  801374:	180b883a 	mov	r5,r3
  801378:	2005883a 	mov	r2,r4
  80137c:	2807883a 	mov	r3,r5
  801380:	100d883a 	mov	r6,r2
  801384:	180f883a 	mov	r7,r3
  801388:	01402074 	movhi	r5,129
  80138c:	294cad04 	addi	r5,r5,12980
  801390:	e13fff17 	ldw	r4,-4(fp)
  801394:	08029740 	call	802974 <fprintf>
  801398:	00001306 	br	8013e8 <camera_uart+0x130>
	}

	else if (s == 3) {
  80139c:	e0bffe17 	ldw	r2,-8(fp)
  8013a0:	108000d8 	cmpnei	r2,r2,3
  8013a4:	1000071e 	bne	r2,zero,8013c4 <camera_uart+0x10c>
		fprintf(uart,"          Snapshot Taken    \r\n\n");
  8013a8:	e1ffff17 	ldw	r7,-4(fp)
  8013ac:	018007c4 	movi	r6,31
  8013b0:	01400044 	movi	r5,1
  8013b4:	01002074 	movhi	r4,129
  8013b8:	210cb804 	addi	r4,r4,13024
  8013bc:	080359c0 	call	80359c <fwrite>
  8013c0:	00000906 	br	8013e8 <camera_uart+0x130>
	}

	else if (s == 4) {
  8013c4:	e0bffe17 	ldw	r2,-8(fp)
  8013c8:	10800118 	cmpnei	r2,r2,4
  8013cc:	1000061e 	bne	r2,zero,8013e8 <camera_uart+0x130>
		fprintf(uart,"\f     ---- Vehicle Entered ----    \r\n");
  8013d0:	e1ffff17 	ldw	r7,-4(fp)
  8013d4:	01800944 	movi	r6,37
  8013d8:	01400044 	movi	r5,1
  8013dc:	01002074 	movhi	r4,129
  8013e0:	210cc004 	addi	r4,r4,13056
  8013e4:	080359c0 	call	80359c <fwrite>
	}

	fclose(uart);
  8013e8:	e13fff17 	ldw	r4,-4(fp)
  8013ec:	08020ec0 	call	8020ec <fclose>
}
  8013f0:	0001883a 	nop
  8013f4:	e037883a 	mov	sp,fp
  8013f8:	dfc00117 	ldw	ra,4(sp)
  8013fc:	df000017 	ldw	fp,0(sp)
  801400:	dec00204 	addi	sp,sp,8
  801404:	f800283a 	ret

00801408 <__divdf3>:
  801408:	defff204 	addi	sp,sp,-56
  80140c:	dd400915 	stw	r21,36(sp)
  801410:	282ad53a 	srli	r21,r5,20
  801414:	dd000815 	stw	r20,32(sp)
  801418:	2828d7fa 	srli	r20,r5,31
  80141c:	dc000415 	stw	r16,16(sp)
  801420:	04000434 	movhi	r16,16
  801424:	df000c15 	stw	fp,48(sp)
  801428:	843fffc4 	addi	r16,r16,-1
  80142c:	dfc00d15 	stw	ra,52(sp)
  801430:	ddc00b15 	stw	r23,44(sp)
  801434:	dd800a15 	stw	r22,40(sp)
  801438:	dcc00715 	stw	r19,28(sp)
  80143c:	dc800615 	stw	r18,24(sp)
  801440:	dc400515 	stw	r17,20(sp)
  801444:	ad41ffcc 	andi	r21,r21,2047
  801448:	2c20703a 	and	r16,r5,r16
  80144c:	a7003fcc 	andi	fp,r20,255
  801450:	a8006126 	beq	r21,zero,8015d8 <__divdf3+0x1d0>
  801454:	0081ffc4 	movi	r2,2047
  801458:	2025883a 	mov	r18,r4
  80145c:	a8803726 	beq	r21,r2,80153c <__divdf3+0x134>
  801460:	80800434 	orhi	r2,r16,16
  801464:	100490fa 	slli	r2,r2,3
  801468:	2020d77a 	srli	r16,r4,29
  80146c:	202490fa 	slli	r18,r4,3
  801470:	ad7f0044 	addi	r21,r21,-1023
  801474:	80a0b03a 	or	r16,r16,r2
  801478:	0027883a 	mov	r19,zero
  80147c:	0013883a 	mov	r9,zero
  801480:	3804d53a 	srli	r2,r7,20
  801484:	382cd7fa 	srli	r22,r7,31
  801488:	04400434 	movhi	r17,16
  80148c:	8c7fffc4 	addi	r17,r17,-1
  801490:	1081ffcc 	andi	r2,r2,2047
  801494:	3011883a 	mov	r8,r6
  801498:	3c62703a 	and	r17,r7,r17
  80149c:	b5c03fcc 	andi	r23,r22,255
  8014a0:	10006c26 	beq	r2,zero,801654 <__divdf3+0x24c>
  8014a4:	00c1ffc4 	movi	r3,2047
  8014a8:	10c06426 	beq	r2,r3,80163c <__divdf3+0x234>
  8014ac:	88c00434 	orhi	r3,r17,16
  8014b0:	180690fa 	slli	r3,r3,3
  8014b4:	3022d77a 	srli	r17,r6,29
  8014b8:	301090fa 	slli	r8,r6,3
  8014bc:	10bf0044 	addi	r2,r2,-1023
  8014c0:	88e2b03a 	or	r17,r17,r3
  8014c4:	000f883a 	mov	r7,zero
  8014c8:	a58cf03a 	xor	r6,r20,r22
  8014cc:	3cc8b03a 	or	r4,r7,r19
  8014d0:	a8abc83a 	sub	r21,r21,r2
  8014d4:	008003c4 	movi	r2,15
  8014d8:	3007883a 	mov	r3,r6
  8014dc:	34c03fcc 	andi	r19,r6,255
  8014e0:	11009036 	bltu	r2,r4,801724 <__divdf3+0x31c>
  8014e4:	200890ba 	slli	r4,r4,2
  8014e8:	00802034 	movhi	r2,128
  8014ec:	10853f04 	addi	r2,r2,5372
  8014f0:	2089883a 	add	r4,r4,r2
  8014f4:	20800017 	ldw	r2,0(r4)
  8014f8:	1000683a 	jmp	r2
  8014fc:	00801724 	muli	r2,zero,92
  801500:	00801574 	movhi	r2,85
  801504:	00801714 	movui	r2,92
  801508:	00801568 	cmpgeui	r2,zero,85
  80150c:	00801714 	movui	r2,92
  801510:	008016e8 	cmpgeui	r2,zero,91
  801514:	00801714 	movui	r2,92
  801518:	00801568 	cmpgeui	r2,zero,85
  80151c:	00801574 	movhi	r2,85
  801520:	00801574 	movhi	r2,85
  801524:	008016e8 	cmpgeui	r2,zero,91
  801528:	00801568 	cmpgeui	r2,zero,85
  80152c:	00801558 	cmpnei	r2,zero,85
  801530:	00801558 	cmpnei	r2,zero,85
  801534:	00801558 	cmpnei	r2,zero,85
  801538:	00801a08 	cmpgei	r2,zero,104
  80153c:	2404b03a 	or	r2,r4,r16
  801540:	1000661e 	bne	r2,zero,8016dc <__divdf3+0x2d4>
  801544:	04c00204 	movi	r19,8
  801548:	0021883a 	mov	r16,zero
  80154c:	0025883a 	mov	r18,zero
  801550:	02400084 	movi	r9,2
  801554:	003fca06 	br	801480 <__alt_mem_onchip_mem+0xff781480>
  801558:	8023883a 	mov	r17,r16
  80155c:	9011883a 	mov	r8,r18
  801560:	e02f883a 	mov	r23,fp
  801564:	480f883a 	mov	r7,r9
  801568:	00800084 	movi	r2,2
  80156c:	3881311e 	bne	r7,r2,801a34 <__divdf3+0x62c>
  801570:	b827883a 	mov	r19,r23
  801574:	98c0004c 	andi	r3,r19,1
  801578:	0081ffc4 	movi	r2,2047
  80157c:	000b883a 	mov	r5,zero
  801580:	0025883a 	mov	r18,zero
  801584:	1004953a 	slli	r2,r2,20
  801588:	18c03fcc 	andi	r3,r3,255
  80158c:	04400434 	movhi	r17,16
  801590:	8c7fffc4 	addi	r17,r17,-1
  801594:	180697fa 	slli	r3,r3,31
  801598:	2c4a703a 	and	r5,r5,r17
  80159c:	288ab03a 	or	r5,r5,r2
  8015a0:	28c6b03a 	or	r3,r5,r3
  8015a4:	9005883a 	mov	r2,r18
  8015a8:	dfc00d17 	ldw	ra,52(sp)
  8015ac:	df000c17 	ldw	fp,48(sp)
  8015b0:	ddc00b17 	ldw	r23,44(sp)
  8015b4:	dd800a17 	ldw	r22,40(sp)
  8015b8:	dd400917 	ldw	r21,36(sp)
  8015bc:	dd000817 	ldw	r20,32(sp)
  8015c0:	dcc00717 	ldw	r19,28(sp)
  8015c4:	dc800617 	ldw	r18,24(sp)
  8015c8:	dc400517 	ldw	r17,20(sp)
  8015cc:	dc000417 	ldw	r16,16(sp)
  8015d0:	dec00e04 	addi	sp,sp,56
  8015d4:	f800283a 	ret
  8015d8:	2404b03a 	or	r2,r4,r16
  8015dc:	2027883a 	mov	r19,r4
  8015e0:	10003926 	beq	r2,zero,8016c8 <__divdf3+0x2c0>
  8015e4:	80012e26 	beq	r16,zero,801aa0 <__divdf3+0x698>
  8015e8:	8009883a 	mov	r4,r16
  8015ec:	d9800315 	stw	r6,12(sp)
  8015f0:	d9c00215 	stw	r7,8(sp)
  8015f4:	0801dcc0 	call	801dcc <__clzsi2>
  8015f8:	d9800317 	ldw	r6,12(sp)
  8015fc:	d9c00217 	ldw	r7,8(sp)
  801600:	113ffd44 	addi	r4,r2,-11
  801604:	00c00704 	movi	r3,28
  801608:	19012116 	blt	r3,r4,801a90 <__divdf3+0x688>
  80160c:	00c00744 	movi	r3,29
  801610:	147ffe04 	addi	r17,r2,-8
  801614:	1907c83a 	sub	r3,r3,r4
  801618:	8460983a 	sll	r16,r16,r17
  80161c:	98c6d83a 	srl	r3,r19,r3
  801620:	9c64983a 	sll	r18,r19,r17
  801624:	1c20b03a 	or	r16,r3,r16
  801628:	1080fcc4 	addi	r2,r2,1011
  80162c:	00abc83a 	sub	r21,zero,r2
  801630:	0027883a 	mov	r19,zero
  801634:	0013883a 	mov	r9,zero
  801638:	003f9106 	br	801480 <__alt_mem_onchip_mem+0xff781480>
  80163c:	3446b03a 	or	r3,r6,r17
  801640:	18001f1e 	bne	r3,zero,8016c0 <__divdf3+0x2b8>
  801644:	0023883a 	mov	r17,zero
  801648:	0011883a 	mov	r8,zero
  80164c:	01c00084 	movi	r7,2
  801650:	003f9d06 	br	8014c8 <__alt_mem_onchip_mem+0xff7814c8>
  801654:	3446b03a 	or	r3,r6,r17
  801658:	18001526 	beq	r3,zero,8016b0 <__divdf3+0x2a8>
  80165c:	88011b26 	beq	r17,zero,801acc <__divdf3+0x6c4>
  801660:	8809883a 	mov	r4,r17
  801664:	d9800315 	stw	r6,12(sp)
  801668:	da400115 	stw	r9,4(sp)
  80166c:	0801dcc0 	call	801dcc <__clzsi2>
  801670:	d9800317 	ldw	r6,12(sp)
  801674:	da400117 	ldw	r9,4(sp)
  801678:	113ffd44 	addi	r4,r2,-11
  80167c:	00c00704 	movi	r3,28
  801680:	19010e16 	blt	r3,r4,801abc <__divdf3+0x6b4>
  801684:	00c00744 	movi	r3,29
  801688:	123ffe04 	addi	r8,r2,-8
  80168c:	1907c83a 	sub	r3,r3,r4
  801690:	8a22983a 	sll	r17,r17,r8
  801694:	30c6d83a 	srl	r3,r6,r3
  801698:	3210983a 	sll	r8,r6,r8
  80169c:	1c62b03a 	or	r17,r3,r17
  8016a0:	1080fcc4 	addi	r2,r2,1011
  8016a4:	0085c83a 	sub	r2,zero,r2
  8016a8:	000f883a 	mov	r7,zero
  8016ac:	003f8606 	br	8014c8 <__alt_mem_onchip_mem+0xff7814c8>
  8016b0:	0023883a 	mov	r17,zero
  8016b4:	0011883a 	mov	r8,zero
  8016b8:	01c00044 	movi	r7,1
  8016bc:	003f8206 	br	8014c8 <__alt_mem_onchip_mem+0xff7814c8>
  8016c0:	01c000c4 	movi	r7,3
  8016c4:	003f8006 	br	8014c8 <__alt_mem_onchip_mem+0xff7814c8>
  8016c8:	04c00104 	movi	r19,4
  8016cc:	0021883a 	mov	r16,zero
  8016d0:	0025883a 	mov	r18,zero
  8016d4:	02400044 	movi	r9,1
  8016d8:	003f6906 	br	801480 <__alt_mem_onchip_mem+0xff781480>
  8016dc:	04c00304 	movi	r19,12
  8016e0:	024000c4 	movi	r9,3
  8016e4:	003f6606 	br	801480 <__alt_mem_onchip_mem+0xff781480>
  8016e8:	01400434 	movhi	r5,16
  8016ec:	0007883a 	mov	r3,zero
  8016f0:	297fffc4 	addi	r5,r5,-1
  8016f4:	04bfffc4 	movi	r18,-1
  8016f8:	0081ffc4 	movi	r2,2047
  8016fc:	003fa106 	br	801584 <__alt_mem_onchip_mem+0xff781584>
  801700:	00c00044 	movi	r3,1
  801704:	1887c83a 	sub	r3,r3,r2
  801708:	01000e04 	movi	r4,56
  80170c:	20c1210e 	bge	r4,r3,801b94 <__divdf3+0x78c>
  801710:	98c0004c 	andi	r3,r19,1
  801714:	0005883a 	mov	r2,zero
  801718:	000b883a 	mov	r5,zero
  80171c:	0025883a 	mov	r18,zero
  801720:	003f9806 	br	801584 <__alt_mem_onchip_mem+0xff781584>
  801724:	8c00fd36 	bltu	r17,r16,801b1c <__divdf3+0x714>
  801728:	8440fb26 	beq	r16,r17,801b18 <__divdf3+0x710>
  80172c:	8007883a 	mov	r3,r16
  801730:	ad7fffc4 	addi	r21,r21,-1
  801734:	0021883a 	mov	r16,zero
  801738:	4004d63a 	srli	r2,r8,24
  80173c:	8822923a 	slli	r17,r17,8
  801740:	1809883a 	mov	r4,r3
  801744:	402c923a 	slli	r22,r8,8
  801748:	88b8b03a 	or	fp,r17,r2
  80174c:	e028d43a 	srli	r20,fp,16
  801750:	d8c00015 	stw	r3,0(sp)
  801754:	e5ffffcc 	andi	r23,fp,65535
  801758:	a00b883a 	mov	r5,r20
  80175c:	0801f280 	call	801f28 <__udivsi3>
  801760:	d8c00017 	ldw	r3,0(sp)
  801764:	a00b883a 	mov	r5,r20
  801768:	d8800315 	stw	r2,12(sp)
  80176c:	1809883a 	mov	r4,r3
  801770:	0801f8c0 	call	801f8c <__umodsi3>
  801774:	d9800317 	ldw	r6,12(sp)
  801778:	1006943a 	slli	r3,r2,16
  80177c:	9004d43a 	srli	r2,r18,16
  801780:	b9a3383a 	mul	r17,r23,r6
  801784:	10c4b03a 	or	r2,r2,r3
  801788:	1440062e 	bgeu	r2,r17,8017a4 <__divdf3+0x39c>
  80178c:	1705883a 	add	r2,r2,fp
  801790:	30ffffc4 	addi	r3,r6,-1
  801794:	1700ee36 	bltu	r2,fp,801b50 <__divdf3+0x748>
  801798:	1440ed2e 	bgeu	r2,r17,801b50 <__divdf3+0x748>
  80179c:	31bfff84 	addi	r6,r6,-2
  8017a0:	1705883a 	add	r2,r2,fp
  8017a4:	1463c83a 	sub	r17,r2,r17
  8017a8:	a00b883a 	mov	r5,r20
  8017ac:	8809883a 	mov	r4,r17
  8017b0:	d9800315 	stw	r6,12(sp)
  8017b4:	0801f280 	call	801f28 <__udivsi3>
  8017b8:	a00b883a 	mov	r5,r20
  8017bc:	8809883a 	mov	r4,r17
  8017c0:	d8800215 	stw	r2,8(sp)
  8017c4:	0801f8c0 	call	801f8c <__umodsi3>
  8017c8:	d9c00217 	ldw	r7,8(sp)
  8017cc:	1004943a 	slli	r2,r2,16
  8017d0:	94bfffcc 	andi	r18,r18,65535
  8017d4:	b9d1383a 	mul	r8,r23,r7
  8017d8:	90a4b03a 	or	r18,r18,r2
  8017dc:	d9800317 	ldw	r6,12(sp)
  8017e0:	9200062e 	bgeu	r18,r8,8017fc <__divdf3+0x3f4>
  8017e4:	9725883a 	add	r18,r18,fp
  8017e8:	38bfffc4 	addi	r2,r7,-1
  8017ec:	9700d636 	bltu	r18,fp,801b48 <__divdf3+0x740>
  8017f0:	9200d52e 	bgeu	r18,r8,801b48 <__divdf3+0x740>
  8017f4:	39ffff84 	addi	r7,r7,-2
  8017f8:	9725883a 	add	r18,r18,fp
  8017fc:	3004943a 	slli	r2,r6,16
  801800:	b012d43a 	srli	r9,r22,16
  801804:	b1bfffcc 	andi	r6,r22,65535
  801808:	11e2b03a 	or	r17,r2,r7
  80180c:	8806d43a 	srli	r3,r17,16
  801810:	893fffcc 	andi	r4,r17,65535
  801814:	218b383a 	mul	r5,r4,r6
  801818:	30c5383a 	mul	r2,r6,r3
  80181c:	2249383a 	mul	r4,r4,r9
  801820:	280ed43a 	srli	r7,r5,16
  801824:	9225c83a 	sub	r18,r18,r8
  801828:	2089883a 	add	r4,r4,r2
  80182c:	3909883a 	add	r4,r7,r4
  801830:	1a47383a 	mul	r3,r3,r9
  801834:	2080022e 	bgeu	r4,r2,801840 <__divdf3+0x438>
  801838:	00800074 	movhi	r2,1
  80183c:	1887883a 	add	r3,r3,r2
  801840:	2004d43a 	srli	r2,r4,16
  801844:	2008943a 	slli	r4,r4,16
  801848:	297fffcc 	andi	r5,r5,65535
  80184c:	10c7883a 	add	r3,r2,r3
  801850:	2149883a 	add	r4,r4,r5
  801854:	90c0a536 	bltu	r18,r3,801aec <__divdf3+0x6e4>
  801858:	90c0bf26 	beq	r18,r3,801b58 <__divdf3+0x750>
  80185c:	90c7c83a 	sub	r3,r18,r3
  801860:	810fc83a 	sub	r7,r16,r4
  801864:	81e5803a 	cmpltu	r18,r16,r7
  801868:	1ca5c83a 	sub	r18,r3,r18
  80186c:	e480c126 	beq	fp,r18,801b74 <__divdf3+0x76c>
  801870:	a00b883a 	mov	r5,r20
  801874:	9009883a 	mov	r4,r18
  801878:	d9800315 	stw	r6,12(sp)
  80187c:	d9c00215 	stw	r7,8(sp)
  801880:	da400115 	stw	r9,4(sp)
  801884:	0801f280 	call	801f28 <__udivsi3>
  801888:	a00b883a 	mov	r5,r20
  80188c:	9009883a 	mov	r4,r18
  801890:	d8800015 	stw	r2,0(sp)
  801894:	0801f8c0 	call	801f8c <__umodsi3>
  801898:	d9c00217 	ldw	r7,8(sp)
  80189c:	da000017 	ldw	r8,0(sp)
  8018a0:	1006943a 	slli	r3,r2,16
  8018a4:	3804d43a 	srli	r2,r7,16
  8018a8:	ba21383a 	mul	r16,r23,r8
  8018ac:	d9800317 	ldw	r6,12(sp)
  8018b0:	10c4b03a 	or	r2,r2,r3
  8018b4:	da400117 	ldw	r9,4(sp)
  8018b8:	1400062e 	bgeu	r2,r16,8018d4 <__divdf3+0x4cc>
  8018bc:	1705883a 	add	r2,r2,fp
  8018c0:	40ffffc4 	addi	r3,r8,-1
  8018c4:	1700ad36 	bltu	r2,fp,801b7c <__divdf3+0x774>
  8018c8:	1400ac2e 	bgeu	r2,r16,801b7c <__divdf3+0x774>
  8018cc:	423fff84 	addi	r8,r8,-2
  8018d0:	1705883a 	add	r2,r2,fp
  8018d4:	1421c83a 	sub	r16,r2,r16
  8018d8:	a00b883a 	mov	r5,r20
  8018dc:	8009883a 	mov	r4,r16
  8018e0:	d9800315 	stw	r6,12(sp)
  8018e4:	d9c00215 	stw	r7,8(sp)
  8018e8:	da000015 	stw	r8,0(sp)
  8018ec:	da400115 	stw	r9,4(sp)
  8018f0:	0801f280 	call	801f28 <__udivsi3>
  8018f4:	8009883a 	mov	r4,r16
  8018f8:	a00b883a 	mov	r5,r20
  8018fc:	1025883a 	mov	r18,r2
  801900:	0801f8c0 	call	801f8c <__umodsi3>
  801904:	d9c00217 	ldw	r7,8(sp)
  801908:	1004943a 	slli	r2,r2,16
  80190c:	bcaf383a 	mul	r23,r23,r18
  801910:	393fffcc 	andi	r4,r7,65535
  801914:	2088b03a 	or	r4,r4,r2
  801918:	d9800317 	ldw	r6,12(sp)
  80191c:	da000017 	ldw	r8,0(sp)
  801920:	da400117 	ldw	r9,4(sp)
  801924:	25c0062e 	bgeu	r4,r23,801940 <__divdf3+0x538>
  801928:	2709883a 	add	r4,r4,fp
  80192c:	90bfffc4 	addi	r2,r18,-1
  801930:	27009436 	bltu	r4,fp,801b84 <__divdf3+0x77c>
  801934:	25c0932e 	bgeu	r4,r23,801b84 <__divdf3+0x77c>
  801938:	94bfff84 	addi	r18,r18,-2
  80193c:	2709883a 	add	r4,r4,fp
  801940:	4004943a 	slli	r2,r8,16
  801944:	25efc83a 	sub	r23,r4,r23
  801948:	1490b03a 	or	r8,r2,r18
  80194c:	4008d43a 	srli	r4,r8,16
  801950:	40ffffcc 	andi	r3,r8,65535
  801954:	30c5383a 	mul	r2,r6,r3
  801958:	1a47383a 	mul	r3,r3,r9
  80195c:	310d383a 	mul	r6,r6,r4
  801960:	100ad43a 	srli	r5,r2,16
  801964:	4913383a 	mul	r9,r9,r4
  801968:	1987883a 	add	r3,r3,r6
  80196c:	28c7883a 	add	r3,r5,r3
  801970:	1980022e 	bgeu	r3,r6,80197c <__divdf3+0x574>
  801974:	01000074 	movhi	r4,1
  801978:	4913883a 	add	r9,r9,r4
  80197c:	1808d43a 	srli	r4,r3,16
  801980:	1806943a 	slli	r3,r3,16
  801984:	10bfffcc 	andi	r2,r2,65535
  801988:	2253883a 	add	r9,r4,r9
  80198c:	1887883a 	add	r3,r3,r2
  801990:	ba403836 	bltu	r23,r9,801a74 <__divdf3+0x66c>
  801994:	ba403626 	beq	r23,r9,801a70 <__divdf3+0x668>
  801998:	42000054 	ori	r8,r8,1
  80199c:	a880ffc4 	addi	r2,r21,1023
  8019a0:	00bf570e 	bge	zero,r2,801700 <__alt_mem_onchip_mem+0xff781700>
  8019a4:	40c001cc 	andi	r3,r8,7
  8019a8:	18000726 	beq	r3,zero,8019c8 <__divdf3+0x5c0>
  8019ac:	40c003cc 	andi	r3,r8,15
  8019b0:	01000104 	movi	r4,4
  8019b4:	19000426 	beq	r3,r4,8019c8 <__divdf3+0x5c0>
  8019b8:	4107883a 	add	r3,r8,r4
  8019bc:	1a11803a 	cmpltu	r8,r3,r8
  8019c0:	8a23883a 	add	r17,r17,r8
  8019c4:	1811883a 	mov	r8,r3
  8019c8:	88c0402c 	andhi	r3,r17,256
  8019cc:	18000426 	beq	r3,zero,8019e0 <__divdf3+0x5d8>
  8019d0:	00ffc034 	movhi	r3,65280
  8019d4:	18ffffc4 	addi	r3,r3,-1
  8019d8:	a8810004 	addi	r2,r21,1024
  8019dc:	88e2703a 	and	r17,r17,r3
  8019e0:	00c1ff84 	movi	r3,2046
  8019e4:	18bee316 	blt	r3,r2,801574 <__alt_mem_onchip_mem+0xff781574>
  8019e8:	8824977a 	slli	r18,r17,29
  8019ec:	4010d0fa 	srli	r8,r8,3
  8019f0:	8822927a 	slli	r17,r17,9
  8019f4:	1081ffcc 	andi	r2,r2,2047
  8019f8:	9224b03a 	or	r18,r18,r8
  8019fc:	880ad33a 	srli	r5,r17,12
  801a00:	98c0004c 	andi	r3,r19,1
  801a04:	003edf06 	br	801584 <__alt_mem_onchip_mem+0xff781584>
  801a08:	8080022c 	andhi	r2,r16,8
  801a0c:	10001226 	beq	r2,zero,801a58 <__divdf3+0x650>
  801a10:	8880022c 	andhi	r2,r17,8
  801a14:	1000101e 	bne	r2,zero,801a58 <__divdf3+0x650>
  801a18:	00800434 	movhi	r2,16
  801a1c:	89400234 	orhi	r5,r17,8
  801a20:	10bfffc4 	addi	r2,r2,-1
  801a24:	b007883a 	mov	r3,r22
  801a28:	288a703a 	and	r5,r5,r2
  801a2c:	4025883a 	mov	r18,r8
  801a30:	003f3106 	br	8016f8 <__alt_mem_onchip_mem+0xff7816f8>
  801a34:	008000c4 	movi	r2,3
  801a38:	3880a626 	beq	r7,r2,801cd4 <__divdf3+0x8cc>
  801a3c:	00800044 	movi	r2,1
  801a40:	3880521e 	bne	r7,r2,801b8c <__divdf3+0x784>
  801a44:	b807883a 	mov	r3,r23
  801a48:	0005883a 	mov	r2,zero
  801a4c:	000b883a 	mov	r5,zero
  801a50:	0025883a 	mov	r18,zero
  801a54:	003ecb06 	br	801584 <__alt_mem_onchip_mem+0xff781584>
  801a58:	00800434 	movhi	r2,16
  801a5c:	81400234 	orhi	r5,r16,8
  801a60:	10bfffc4 	addi	r2,r2,-1
  801a64:	a007883a 	mov	r3,r20
  801a68:	288a703a 	and	r5,r5,r2
  801a6c:	003f2206 	br	8016f8 <__alt_mem_onchip_mem+0xff7816f8>
  801a70:	183fca26 	beq	r3,zero,80199c <__alt_mem_onchip_mem+0xff78199c>
  801a74:	e5ef883a 	add	r23,fp,r23
  801a78:	40bfffc4 	addi	r2,r8,-1
  801a7c:	bf00392e 	bgeu	r23,fp,801b64 <__divdf3+0x75c>
  801a80:	1011883a 	mov	r8,r2
  801a84:	ba7fc41e 	bne	r23,r9,801998 <__alt_mem_onchip_mem+0xff781998>
  801a88:	b0ffc31e 	bne	r22,r3,801998 <__alt_mem_onchip_mem+0xff781998>
  801a8c:	003fc306 	br	80199c <__alt_mem_onchip_mem+0xff78199c>
  801a90:	143ff604 	addi	r16,r2,-40
  801a94:	9c20983a 	sll	r16,r19,r16
  801a98:	0025883a 	mov	r18,zero
  801a9c:	003ee206 	br	801628 <__alt_mem_onchip_mem+0xff781628>
  801aa0:	d9800315 	stw	r6,12(sp)
  801aa4:	d9c00215 	stw	r7,8(sp)
  801aa8:	0801dcc0 	call	801dcc <__clzsi2>
  801aac:	10800804 	addi	r2,r2,32
  801ab0:	d9c00217 	ldw	r7,8(sp)
  801ab4:	d9800317 	ldw	r6,12(sp)
  801ab8:	003ed106 	br	801600 <__alt_mem_onchip_mem+0xff781600>
  801abc:	147ff604 	addi	r17,r2,-40
  801ac0:	3462983a 	sll	r17,r6,r17
  801ac4:	0011883a 	mov	r8,zero
  801ac8:	003ef506 	br	8016a0 <__alt_mem_onchip_mem+0xff7816a0>
  801acc:	3009883a 	mov	r4,r6
  801ad0:	d9800315 	stw	r6,12(sp)
  801ad4:	da400115 	stw	r9,4(sp)
  801ad8:	0801dcc0 	call	801dcc <__clzsi2>
  801adc:	10800804 	addi	r2,r2,32
  801ae0:	da400117 	ldw	r9,4(sp)
  801ae4:	d9800317 	ldw	r6,12(sp)
  801ae8:	003ee306 	br	801678 <__alt_mem_onchip_mem+0xff781678>
  801aec:	85a1883a 	add	r16,r16,r22
  801af0:	8585803a 	cmpltu	r2,r16,r22
  801af4:	1705883a 	add	r2,r2,fp
  801af8:	14a5883a 	add	r18,r2,r18
  801afc:	88bfffc4 	addi	r2,r17,-1
  801b00:	e4800c2e 	bgeu	fp,r18,801b34 <__divdf3+0x72c>
  801b04:	90c03e36 	bltu	r18,r3,801c00 <__divdf3+0x7f8>
  801b08:	1c806926 	beq	r3,r18,801cb0 <__divdf3+0x8a8>
  801b0c:	90c7c83a 	sub	r3,r18,r3
  801b10:	1023883a 	mov	r17,r2
  801b14:	003f5206 	br	801860 <__alt_mem_onchip_mem+0xff781860>
  801b18:	923f0436 	bltu	r18,r8,80172c <__alt_mem_onchip_mem+0xff78172c>
  801b1c:	800897fa 	slli	r4,r16,31
  801b20:	9004d07a 	srli	r2,r18,1
  801b24:	8006d07a 	srli	r3,r16,1
  801b28:	902097fa 	slli	r16,r18,31
  801b2c:	20a4b03a 	or	r18,r4,r2
  801b30:	003f0106 	br	801738 <__alt_mem_onchip_mem+0xff781738>
  801b34:	e4bff51e 	bne	fp,r18,801b0c <__alt_mem_onchip_mem+0xff781b0c>
  801b38:	85bff22e 	bgeu	r16,r22,801b04 <__alt_mem_onchip_mem+0xff781b04>
  801b3c:	e0c7c83a 	sub	r3,fp,r3
  801b40:	1023883a 	mov	r17,r2
  801b44:	003f4606 	br	801860 <__alt_mem_onchip_mem+0xff781860>
  801b48:	100f883a 	mov	r7,r2
  801b4c:	003f2b06 	br	8017fc <__alt_mem_onchip_mem+0xff7817fc>
  801b50:	180d883a 	mov	r6,r3
  801b54:	003f1306 	br	8017a4 <__alt_mem_onchip_mem+0xff7817a4>
  801b58:	813fe436 	bltu	r16,r4,801aec <__alt_mem_onchip_mem+0xff781aec>
  801b5c:	0007883a 	mov	r3,zero
  801b60:	003f3f06 	br	801860 <__alt_mem_onchip_mem+0xff781860>
  801b64:	ba402c36 	bltu	r23,r9,801c18 <__divdf3+0x810>
  801b68:	4dc05426 	beq	r9,r23,801cbc <__divdf3+0x8b4>
  801b6c:	1011883a 	mov	r8,r2
  801b70:	003f8906 	br	801998 <__alt_mem_onchip_mem+0xff781998>
  801b74:	023fffc4 	movi	r8,-1
  801b78:	003f8806 	br	80199c <__alt_mem_onchip_mem+0xff78199c>
  801b7c:	1811883a 	mov	r8,r3
  801b80:	003f5406 	br	8018d4 <__alt_mem_onchip_mem+0xff7818d4>
  801b84:	1025883a 	mov	r18,r2
  801b88:	003f6d06 	br	801940 <__alt_mem_onchip_mem+0xff781940>
  801b8c:	b827883a 	mov	r19,r23
  801b90:	003f8206 	br	80199c <__alt_mem_onchip_mem+0xff78199c>
  801b94:	010007c4 	movi	r4,31
  801b98:	20c02616 	blt	r4,r3,801c34 <__divdf3+0x82c>
  801b9c:	00800804 	movi	r2,32
  801ba0:	10c5c83a 	sub	r2,r2,r3
  801ba4:	888a983a 	sll	r5,r17,r2
  801ba8:	40c8d83a 	srl	r4,r8,r3
  801bac:	4084983a 	sll	r2,r8,r2
  801bb0:	88e2d83a 	srl	r17,r17,r3
  801bb4:	2906b03a 	or	r3,r5,r4
  801bb8:	1004c03a 	cmpne	r2,r2,zero
  801bbc:	1886b03a 	or	r3,r3,r2
  801bc0:	188001cc 	andi	r2,r3,7
  801bc4:	10000726 	beq	r2,zero,801be4 <__divdf3+0x7dc>
  801bc8:	188003cc 	andi	r2,r3,15
  801bcc:	01000104 	movi	r4,4
  801bd0:	11000426 	beq	r2,r4,801be4 <__divdf3+0x7dc>
  801bd4:	1805883a 	mov	r2,r3
  801bd8:	10c00104 	addi	r3,r2,4
  801bdc:	1885803a 	cmpltu	r2,r3,r2
  801be0:	88a3883a 	add	r17,r17,r2
  801be4:	8880202c 	andhi	r2,r17,128
  801be8:	10002726 	beq	r2,zero,801c88 <__divdf3+0x880>
  801bec:	98c0004c 	andi	r3,r19,1
  801bf0:	00800044 	movi	r2,1
  801bf4:	000b883a 	mov	r5,zero
  801bf8:	0025883a 	mov	r18,zero
  801bfc:	003e6106 	br	801584 <__alt_mem_onchip_mem+0xff781584>
  801c00:	85a1883a 	add	r16,r16,r22
  801c04:	8585803a 	cmpltu	r2,r16,r22
  801c08:	1705883a 	add	r2,r2,fp
  801c0c:	14a5883a 	add	r18,r2,r18
  801c10:	8c7fff84 	addi	r17,r17,-2
  801c14:	003f1106 	br	80185c <__alt_mem_onchip_mem+0xff78185c>
  801c18:	b589883a 	add	r4,r22,r22
  801c1c:	25ad803a 	cmpltu	r22,r4,r22
  801c20:	b739883a 	add	fp,r22,fp
  801c24:	40bfff84 	addi	r2,r8,-2
  801c28:	bf2f883a 	add	r23,r23,fp
  801c2c:	202d883a 	mov	r22,r4
  801c30:	003f9306 	br	801a80 <__alt_mem_onchip_mem+0xff781a80>
  801c34:	013ff844 	movi	r4,-31
  801c38:	2085c83a 	sub	r2,r4,r2
  801c3c:	8888d83a 	srl	r4,r17,r2
  801c40:	00800804 	movi	r2,32
  801c44:	18802126 	beq	r3,r2,801ccc <__divdf3+0x8c4>
  801c48:	00801004 	movi	r2,64
  801c4c:	10c5c83a 	sub	r2,r2,r3
  801c50:	8884983a 	sll	r2,r17,r2
  801c54:	1204b03a 	or	r2,r2,r8
  801c58:	1004c03a 	cmpne	r2,r2,zero
  801c5c:	2084b03a 	or	r2,r4,r2
  801c60:	144001cc 	andi	r17,r2,7
  801c64:	88000d1e 	bne	r17,zero,801c9c <__divdf3+0x894>
  801c68:	000b883a 	mov	r5,zero
  801c6c:	1024d0fa 	srli	r18,r2,3
  801c70:	98c0004c 	andi	r3,r19,1
  801c74:	0005883a 	mov	r2,zero
  801c78:	9464b03a 	or	r18,r18,r17
  801c7c:	003e4106 	br	801584 <__alt_mem_onchip_mem+0xff781584>
  801c80:	1007883a 	mov	r3,r2
  801c84:	0023883a 	mov	r17,zero
  801c88:	880a927a 	slli	r5,r17,9
  801c8c:	1805883a 	mov	r2,r3
  801c90:	8822977a 	slli	r17,r17,29
  801c94:	280ad33a 	srli	r5,r5,12
  801c98:	003ff406 	br	801c6c <__alt_mem_onchip_mem+0xff781c6c>
  801c9c:	10c003cc 	andi	r3,r2,15
  801ca0:	01000104 	movi	r4,4
  801ca4:	193ff626 	beq	r3,r4,801c80 <__alt_mem_onchip_mem+0xff781c80>
  801ca8:	0023883a 	mov	r17,zero
  801cac:	003fca06 	br	801bd8 <__alt_mem_onchip_mem+0xff781bd8>
  801cb0:	813fd336 	bltu	r16,r4,801c00 <__alt_mem_onchip_mem+0xff781c00>
  801cb4:	1023883a 	mov	r17,r2
  801cb8:	003fa806 	br	801b5c <__alt_mem_onchip_mem+0xff781b5c>
  801cbc:	b0ffd636 	bltu	r22,r3,801c18 <__alt_mem_onchip_mem+0xff781c18>
  801cc0:	1011883a 	mov	r8,r2
  801cc4:	b0ff341e 	bne	r22,r3,801998 <__alt_mem_onchip_mem+0xff781998>
  801cc8:	003f3406 	br	80199c <__alt_mem_onchip_mem+0xff78199c>
  801ccc:	0005883a 	mov	r2,zero
  801cd0:	003fe006 	br	801c54 <__alt_mem_onchip_mem+0xff781c54>
  801cd4:	00800434 	movhi	r2,16
  801cd8:	89400234 	orhi	r5,r17,8
  801cdc:	10bfffc4 	addi	r2,r2,-1
  801ce0:	b807883a 	mov	r3,r23
  801ce4:	288a703a 	and	r5,r5,r2
  801ce8:	4025883a 	mov	r18,r8
  801cec:	003e8206 	br	8016f8 <__alt_mem_onchip_mem+0xff7816f8>

00801cf0 <__floatsidf>:
  801cf0:	defffd04 	addi	sp,sp,-12
  801cf4:	dfc00215 	stw	ra,8(sp)
  801cf8:	dc400115 	stw	r17,4(sp)
  801cfc:	dc000015 	stw	r16,0(sp)
  801d00:	20002b26 	beq	r4,zero,801db0 <__floatsidf+0xc0>
  801d04:	2023883a 	mov	r17,r4
  801d08:	2020d7fa 	srli	r16,r4,31
  801d0c:	20002d16 	blt	r4,zero,801dc4 <__floatsidf+0xd4>
  801d10:	8809883a 	mov	r4,r17
  801d14:	0801dcc0 	call	801dcc <__clzsi2>
  801d18:	01410784 	movi	r5,1054
  801d1c:	288bc83a 	sub	r5,r5,r2
  801d20:	01010cc4 	movi	r4,1075
  801d24:	2149c83a 	sub	r4,r4,r5
  801d28:	00c007c4 	movi	r3,31
  801d2c:	1900160e 	bge	r3,r4,801d88 <__floatsidf+0x98>
  801d30:	00c104c4 	movi	r3,1043
  801d34:	1947c83a 	sub	r3,r3,r5
  801d38:	88c6983a 	sll	r3,r17,r3
  801d3c:	00800434 	movhi	r2,16
  801d40:	10bfffc4 	addi	r2,r2,-1
  801d44:	1886703a 	and	r3,r3,r2
  801d48:	2941ffcc 	andi	r5,r5,2047
  801d4c:	800d883a 	mov	r6,r16
  801d50:	0005883a 	mov	r2,zero
  801d54:	280a953a 	slli	r5,r5,20
  801d58:	31803fcc 	andi	r6,r6,255
  801d5c:	01000434 	movhi	r4,16
  801d60:	300c97fa 	slli	r6,r6,31
  801d64:	213fffc4 	addi	r4,r4,-1
  801d68:	1906703a 	and	r3,r3,r4
  801d6c:	1946b03a 	or	r3,r3,r5
  801d70:	1986b03a 	or	r3,r3,r6
  801d74:	dfc00217 	ldw	ra,8(sp)
  801d78:	dc400117 	ldw	r17,4(sp)
  801d7c:	dc000017 	ldw	r16,0(sp)
  801d80:	dec00304 	addi	sp,sp,12
  801d84:	f800283a 	ret
  801d88:	00c002c4 	movi	r3,11
  801d8c:	1887c83a 	sub	r3,r3,r2
  801d90:	88c6d83a 	srl	r3,r17,r3
  801d94:	8904983a 	sll	r2,r17,r4
  801d98:	01000434 	movhi	r4,16
  801d9c:	213fffc4 	addi	r4,r4,-1
  801da0:	2941ffcc 	andi	r5,r5,2047
  801da4:	1906703a 	and	r3,r3,r4
  801da8:	800d883a 	mov	r6,r16
  801dac:	003fe906 	br	801d54 <__alt_mem_onchip_mem+0xff781d54>
  801db0:	000d883a 	mov	r6,zero
  801db4:	000b883a 	mov	r5,zero
  801db8:	0007883a 	mov	r3,zero
  801dbc:	0005883a 	mov	r2,zero
  801dc0:	003fe406 	br	801d54 <__alt_mem_onchip_mem+0xff781d54>
  801dc4:	0123c83a 	sub	r17,zero,r4
  801dc8:	003fd106 	br	801d10 <__alt_mem_onchip_mem+0xff781d10>

00801dcc <__clzsi2>:
  801dcc:	00bfffd4 	movui	r2,65535
  801dd0:	11000536 	bltu	r2,r4,801de8 <__clzsi2+0x1c>
  801dd4:	00803fc4 	movi	r2,255
  801dd8:	11000f36 	bltu	r2,r4,801e18 <__clzsi2+0x4c>
  801ddc:	00800804 	movi	r2,32
  801de0:	0007883a 	mov	r3,zero
  801de4:	00000506 	br	801dfc <__clzsi2+0x30>
  801de8:	00804034 	movhi	r2,256
  801dec:	10bfffc4 	addi	r2,r2,-1
  801df0:	11000c2e 	bgeu	r2,r4,801e24 <__clzsi2+0x58>
  801df4:	00800204 	movi	r2,8
  801df8:	00c00604 	movi	r3,24
  801dfc:	20c8d83a 	srl	r4,r4,r3
  801e00:	00c02074 	movhi	r3,129
  801e04:	18ccc984 	addi	r3,r3,13094
  801e08:	1909883a 	add	r4,r3,r4
  801e0c:	20c00003 	ldbu	r3,0(r4)
  801e10:	10c5c83a 	sub	r2,r2,r3
  801e14:	f800283a 	ret
  801e18:	00800604 	movi	r2,24
  801e1c:	00c00204 	movi	r3,8
  801e20:	003ff606 	br	801dfc <__alt_mem_onchip_mem+0xff781dfc>
  801e24:	00800404 	movi	r2,16
  801e28:	1007883a 	mov	r3,r2
  801e2c:	003ff306 	br	801dfc <__alt_mem_onchip_mem+0xff781dfc>

00801e30 <__divsi3>:
  801e30:	20001b16 	blt	r4,zero,801ea0 <__divsi3+0x70>
  801e34:	000f883a 	mov	r7,zero
  801e38:	28001616 	blt	r5,zero,801e94 <__divsi3+0x64>
  801e3c:	200d883a 	mov	r6,r4
  801e40:	29001a2e 	bgeu	r5,r4,801eac <__divsi3+0x7c>
  801e44:	00800804 	movi	r2,32
  801e48:	00c00044 	movi	r3,1
  801e4c:	00000106 	br	801e54 <__divsi3+0x24>
  801e50:	10000d26 	beq	r2,zero,801e88 <__divsi3+0x58>
  801e54:	294b883a 	add	r5,r5,r5
  801e58:	10bfffc4 	addi	r2,r2,-1
  801e5c:	18c7883a 	add	r3,r3,r3
  801e60:	293ffb36 	bltu	r5,r4,801e50 <__alt_mem_onchip_mem+0xff781e50>
  801e64:	0005883a 	mov	r2,zero
  801e68:	18000726 	beq	r3,zero,801e88 <__divsi3+0x58>
  801e6c:	0005883a 	mov	r2,zero
  801e70:	31400236 	bltu	r6,r5,801e7c <__divsi3+0x4c>
  801e74:	314dc83a 	sub	r6,r6,r5
  801e78:	10c4b03a 	or	r2,r2,r3
  801e7c:	1806d07a 	srli	r3,r3,1
  801e80:	280ad07a 	srli	r5,r5,1
  801e84:	183ffa1e 	bne	r3,zero,801e70 <__alt_mem_onchip_mem+0xff781e70>
  801e88:	38000126 	beq	r7,zero,801e90 <__divsi3+0x60>
  801e8c:	0085c83a 	sub	r2,zero,r2
  801e90:	f800283a 	ret
  801e94:	014bc83a 	sub	r5,zero,r5
  801e98:	39c0005c 	xori	r7,r7,1
  801e9c:	003fe706 	br	801e3c <__alt_mem_onchip_mem+0xff781e3c>
  801ea0:	0109c83a 	sub	r4,zero,r4
  801ea4:	01c00044 	movi	r7,1
  801ea8:	003fe306 	br	801e38 <__alt_mem_onchip_mem+0xff781e38>
  801eac:	00c00044 	movi	r3,1
  801eb0:	003fee06 	br	801e6c <__alt_mem_onchip_mem+0xff781e6c>

00801eb4 <__modsi3>:
  801eb4:	20001716 	blt	r4,zero,801f14 <__modsi3+0x60>
  801eb8:	000f883a 	mov	r7,zero
  801ebc:	2005883a 	mov	r2,r4
  801ec0:	28001216 	blt	r5,zero,801f0c <__modsi3+0x58>
  801ec4:	2900162e 	bgeu	r5,r4,801f20 <__modsi3+0x6c>
  801ec8:	01800804 	movi	r6,32
  801ecc:	00c00044 	movi	r3,1
  801ed0:	00000106 	br	801ed8 <__modsi3+0x24>
  801ed4:	30000a26 	beq	r6,zero,801f00 <__modsi3+0x4c>
  801ed8:	294b883a 	add	r5,r5,r5
  801edc:	31bfffc4 	addi	r6,r6,-1
  801ee0:	18c7883a 	add	r3,r3,r3
  801ee4:	293ffb36 	bltu	r5,r4,801ed4 <__alt_mem_onchip_mem+0xff781ed4>
  801ee8:	18000526 	beq	r3,zero,801f00 <__modsi3+0x4c>
  801eec:	1806d07a 	srli	r3,r3,1
  801ef0:	11400136 	bltu	r2,r5,801ef8 <__modsi3+0x44>
  801ef4:	1145c83a 	sub	r2,r2,r5
  801ef8:	280ad07a 	srli	r5,r5,1
  801efc:	183ffb1e 	bne	r3,zero,801eec <__alt_mem_onchip_mem+0xff781eec>
  801f00:	38000126 	beq	r7,zero,801f08 <__modsi3+0x54>
  801f04:	0085c83a 	sub	r2,zero,r2
  801f08:	f800283a 	ret
  801f0c:	014bc83a 	sub	r5,zero,r5
  801f10:	003fec06 	br	801ec4 <__alt_mem_onchip_mem+0xff781ec4>
  801f14:	0109c83a 	sub	r4,zero,r4
  801f18:	01c00044 	movi	r7,1
  801f1c:	003fe706 	br	801ebc <__alt_mem_onchip_mem+0xff781ebc>
  801f20:	00c00044 	movi	r3,1
  801f24:	003ff106 	br	801eec <__alt_mem_onchip_mem+0xff781eec>

00801f28 <__udivsi3>:
  801f28:	200d883a 	mov	r6,r4
  801f2c:	2900152e 	bgeu	r5,r4,801f84 <__udivsi3+0x5c>
  801f30:	28001416 	blt	r5,zero,801f84 <__udivsi3+0x5c>
  801f34:	00800804 	movi	r2,32
  801f38:	00c00044 	movi	r3,1
  801f3c:	00000206 	br	801f48 <__udivsi3+0x20>
  801f40:	10000e26 	beq	r2,zero,801f7c <__udivsi3+0x54>
  801f44:	28000516 	blt	r5,zero,801f5c <__udivsi3+0x34>
  801f48:	294b883a 	add	r5,r5,r5
  801f4c:	10bfffc4 	addi	r2,r2,-1
  801f50:	18c7883a 	add	r3,r3,r3
  801f54:	293ffa36 	bltu	r5,r4,801f40 <__alt_mem_onchip_mem+0xff781f40>
  801f58:	18000826 	beq	r3,zero,801f7c <__udivsi3+0x54>
  801f5c:	0005883a 	mov	r2,zero
  801f60:	31400236 	bltu	r6,r5,801f6c <__udivsi3+0x44>
  801f64:	314dc83a 	sub	r6,r6,r5
  801f68:	10c4b03a 	or	r2,r2,r3
  801f6c:	1806d07a 	srli	r3,r3,1
  801f70:	280ad07a 	srli	r5,r5,1
  801f74:	183ffa1e 	bne	r3,zero,801f60 <__alt_mem_onchip_mem+0xff781f60>
  801f78:	f800283a 	ret
  801f7c:	0005883a 	mov	r2,zero
  801f80:	f800283a 	ret
  801f84:	00c00044 	movi	r3,1
  801f88:	003ff406 	br	801f5c <__alt_mem_onchip_mem+0xff781f5c>

00801f8c <__umodsi3>:
  801f8c:	2005883a 	mov	r2,r4
  801f90:	2900122e 	bgeu	r5,r4,801fdc <__umodsi3+0x50>
  801f94:	28001116 	blt	r5,zero,801fdc <__umodsi3+0x50>
  801f98:	01800804 	movi	r6,32
  801f9c:	00c00044 	movi	r3,1
  801fa0:	00000206 	br	801fac <__umodsi3+0x20>
  801fa4:	30000c26 	beq	r6,zero,801fd8 <__umodsi3+0x4c>
  801fa8:	28000516 	blt	r5,zero,801fc0 <__umodsi3+0x34>
  801fac:	294b883a 	add	r5,r5,r5
  801fb0:	31bfffc4 	addi	r6,r6,-1
  801fb4:	18c7883a 	add	r3,r3,r3
  801fb8:	293ffa36 	bltu	r5,r4,801fa4 <__alt_mem_onchip_mem+0xff781fa4>
  801fbc:	18000626 	beq	r3,zero,801fd8 <__umodsi3+0x4c>
  801fc0:	1806d07a 	srli	r3,r3,1
  801fc4:	11400136 	bltu	r2,r5,801fcc <__umodsi3+0x40>
  801fc8:	1145c83a 	sub	r2,r2,r5
  801fcc:	280ad07a 	srli	r5,r5,1
  801fd0:	183ffb1e 	bne	r3,zero,801fc0 <__alt_mem_onchip_mem+0xff781fc0>
  801fd4:	f800283a 	ret
  801fd8:	f800283a 	ret
  801fdc:	00c00044 	movi	r3,1
  801fe0:	003ff706 	br	801fc0 <__alt_mem_onchip_mem+0xff781fc0>

00801fe4 <atoi>:
  801fe4:	01800284 	movi	r6,10
  801fe8:	000b883a 	mov	r5,zero
  801fec:	0804cc41 	jmpi	804cc4 <strtol>

00801ff0 <_atoi_r>:
  801ff0:	01c00284 	movi	r7,10
  801ff4:	000d883a 	mov	r6,zero
  801ff8:	0804a8c1 	jmpi	804a8c <_strtol_r>

00801ffc <_fclose_r>:
  801ffc:	28003926 	beq	r5,zero,8020e4 <_fclose_r+0xe8>
  802000:	defffc04 	addi	sp,sp,-16
  802004:	dc400115 	stw	r17,4(sp)
  802008:	dc000015 	stw	r16,0(sp)
  80200c:	dfc00315 	stw	ra,12(sp)
  802010:	dc800215 	stw	r18,8(sp)
  802014:	2023883a 	mov	r17,r4
  802018:	2821883a 	mov	r16,r5
  80201c:	20000226 	beq	r4,zero,802028 <_fclose_r+0x2c>
  802020:	20800e17 	ldw	r2,56(r4)
  802024:	10002726 	beq	r2,zero,8020c4 <_fclose_r+0xc8>
  802028:	8080030f 	ldh	r2,12(r16)
  80202c:	1000071e 	bne	r2,zero,80204c <_fclose_r+0x50>
  802030:	0005883a 	mov	r2,zero
  802034:	dfc00317 	ldw	ra,12(sp)
  802038:	dc800217 	ldw	r18,8(sp)
  80203c:	dc400117 	ldw	r17,4(sp)
  802040:	dc000017 	ldw	r16,0(sp)
  802044:	dec00404 	addi	sp,sp,16
  802048:	f800283a 	ret
  80204c:	800b883a 	mov	r5,r16
  802050:	8809883a 	mov	r4,r17
  802054:	08021000 	call	802100 <__sflush_r>
  802058:	1025883a 	mov	r18,r2
  80205c:	80800b17 	ldw	r2,44(r16)
  802060:	10000426 	beq	r2,zero,802074 <_fclose_r+0x78>
  802064:	81400717 	ldw	r5,28(r16)
  802068:	8809883a 	mov	r4,r17
  80206c:	103ee83a 	callr	r2
  802070:	10001616 	blt	r2,zero,8020cc <_fclose_r+0xd0>
  802074:	8080030b 	ldhu	r2,12(r16)
  802078:	1080200c 	andi	r2,r2,128
  80207c:	1000151e 	bne	r2,zero,8020d4 <_fclose_r+0xd8>
  802080:	81400c17 	ldw	r5,48(r16)
  802084:	28000526 	beq	r5,zero,80209c <_fclose_r+0xa0>
  802088:	80801004 	addi	r2,r16,64
  80208c:	28800226 	beq	r5,r2,802098 <_fclose_r+0x9c>
  802090:	8809883a 	mov	r4,r17
  802094:	0802b5c0 	call	802b5c <_free_r>
  802098:	80000c15 	stw	zero,48(r16)
  80209c:	81401117 	ldw	r5,68(r16)
  8020a0:	28000326 	beq	r5,zero,8020b0 <_fclose_r+0xb4>
  8020a4:	8809883a 	mov	r4,r17
  8020a8:	0802b5c0 	call	802b5c <_free_r>
  8020ac:	80001115 	stw	zero,68(r16)
  8020b0:	08028000 	call	802800 <__sfp_lock_acquire>
  8020b4:	8000030d 	sth	zero,12(r16)
  8020b8:	08028040 	call	802804 <__sfp_lock_release>
  8020bc:	9005883a 	mov	r2,r18
  8020c0:	003fdc06 	br	802034 <__alt_mem_onchip_mem+0xff782034>
  8020c4:	08027f00 	call	8027f0 <__sinit>
  8020c8:	003fd706 	br	802028 <__alt_mem_onchip_mem+0xff782028>
  8020cc:	04bfffc4 	movi	r18,-1
  8020d0:	003fe806 	br	802074 <__alt_mem_onchip_mem+0xff782074>
  8020d4:	81400417 	ldw	r5,16(r16)
  8020d8:	8809883a 	mov	r4,r17
  8020dc:	0802b5c0 	call	802b5c <_free_r>
  8020e0:	003fe706 	br	802080 <__alt_mem_onchip_mem+0xff782080>
  8020e4:	0005883a 	mov	r2,zero
  8020e8:	f800283a 	ret

008020ec <fclose>:
  8020ec:	00802074 	movhi	r2,129
  8020f0:	10955b04 	addi	r2,r2,21868
  8020f4:	200b883a 	mov	r5,r4
  8020f8:	11000017 	ldw	r4,0(r2)
  8020fc:	0801ffc1 	jmpi	801ffc <_fclose_r>

00802100 <__sflush_r>:
  802100:	2880030b 	ldhu	r2,12(r5)
  802104:	defffb04 	addi	sp,sp,-20
  802108:	dcc00315 	stw	r19,12(sp)
  80210c:	dc400115 	stw	r17,4(sp)
  802110:	dfc00415 	stw	ra,16(sp)
  802114:	dc800215 	stw	r18,8(sp)
  802118:	dc000015 	stw	r16,0(sp)
  80211c:	10c0020c 	andi	r3,r2,8
  802120:	2823883a 	mov	r17,r5
  802124:	2027883a 	mov	r19,r4
  802128:	1800311e 	bne	r3,zero,8021f0 <__sflush_r+0xf0>
  80212c:	28c00117 	ldw	r3,4(r5)
  802130:	10820014 	ori	r2,r2,2048
  802134:	2880030d 	sth	r2,12(r5)
  802138:	00c04b0e 	bge	zero,r3,802268 <__sflush_r+0x168>
  80213c:	8a000a17 	ldw	r8,40(r17)
  802140:	40002326 	beq	r8,zero,8021d0 <__sflush_r+0xd0>
  802144:	9c000017 	ldw	r16,0(r19)
  802148:	10c4000c 	andi	r3,r2,4096
  80214c:	98000015 	stw	zero,0(r19)
  802150:	18004826 	beq	r3,zero,802274 <__sflush_r+0x174>
  802154:	89801417 	ldw	r6,80(r17)
  802158:	10c0010c 	andi	r3,r2,4
  80215c:	18000626 	beq	r3,zero,802178 <__sflush_r+0x78>
  802160:	88c00117 	ldw	r3,4(r17)
  802164:	88800c17 	ldw	r2,48(r17)
  802168:	30cdc83a 	sub	r6,r6,r3
  80216c:	10000226 	beq	r2,zero,802178 <__sflush_r+0x78>
  802170:	88800f17 	ldw	r2,60(r17)
  802174:	308dc83a 	sub	r6,r6,r2
  802178:	89400717 	ldw	r5,28(r17)
  80217c:	000f883a 	mov	r7,zero
  802180:	9809883a 	mov	r4,r19
  802184:	403ee83a 	callr	r8
  802188:	00ffffc4 	movi	r3,-1
  80218c:	10c04426 	beq	r2,r3,8022a0 <__sflush_r+0x1a0>
  802190:	88c0030b 	ldhu	r3,12(r17)
  802194:	89000417 	ldw	r4,16(r17)
  802198:	88000115 	stw	zero,4(r17)
  80219c:	197dffcc 	andi	r5,r3,63487
  8021a0:	8940030d 	sth	r5,12(r17)
  8021a4:	89000015 	stw	r4,0(r17)
  8021a8:	18c4000c 	andi	r3,r3,4096
  8021ac:	18002c1e 	bne	r3,zero,802260 <__sflush_r+0x160>
  8021b0:	89400c17 	ldw	r5,48(r17)
  8021b4:	9c000015 	stw	r16,0(r19)
  8021b8:	28000526 	beq	r5,zero,8021d0 <__sflush_r+0xd0>
  8021bc:	88801004 	addi	r2,r17,64
  8021c0:	28800226 	beq	r5,r2,8021cc <__sflush_r+0xcc>
  8021c4:	9809883a 	mov	r4,r19
  8021c8:	0802b5c0 	call	802b5c <_free_r>
  8021cc:	88000c15 	stw	zero,48(r17)
  8021d0:	0005883a 	mov	r2,zero
  8021d4:	dfc00417 	ldw	ra,16(sp)
  8021d8:	dcc00317 	ldw	r19,12(sp)
  8021dc:	dc800217 	ldw	r18,8(sp)
  8021e0:	dc400117 	ldw	r17,4(sp)
  8021e4:	dc000017 	ldw	r16,0(sp)
  8021e8:	dec00504 	addi	sp,sp,20
  8021ec:	f800283a 	ret
  8021f0:	2c800417 	ldw	r18,16(r5)
  8021f4:	903ff626 	beq	r18,zero,8021d0 <__alt_mem_onchip_mem+0xff7821d0>
  8021f8:	2c000017 	ldw	r16,0(r5)
  8021fc:	108000cc 	andi	r2,r2,3
  802200:	2c800015 	stw	r18,0(r5)
  802204:	84a1c83a 	sub	r16,r16,r18
  802208:	1000131e 	bne	r2,zero,802258 <__sflush_r+0x158>
  80220c:	28800517 	ldw	r2,20(r5)
  802210:	88800215 	stw	r2,8(r17)
  802214:	04000316 	blt	zero,r16,802224 <__sflush_r+0x124>
  802218:	003fed06 	br	8021d0 <__alt_mem_onchip_mem+0xff7821d0>
  80221c:	90a5883a 	add	r18,r18,r2
  802220:	043feb0e 	bge	zero,r16,8021d0 <__alt_mem_onchip_mem+0xff7821d0>
  802224:	88800917 	ldw	r2,36(r17)
  802228:	89400717 	ldw	r5,28(r17)
  80222c:	800f883a 	mov	r7,r16
  802230:	900d883a 	mov	r6,r18
  802234:	9809883a 	mov	r4,r19
  802238:	103ee83a 	callr	r2
  80223c:	80a1c83a 	sub	r16,r16,r2
  802240:	00bff616 	blt	zero,r2,80221c <__alt_mem_onchip_mem+0xff78221c>
  802244:	88c0030b 	ldhu	r3,12(r17)
  802248:	00bfffc4 	movi	r2,-1
  80224c:	18c01014 	ori	r3,r3,64
  802250:	88c0030d 	sth	r3,12(r17)
  802254:	003fdf06 	br	8021d4 <__alt_mem_onchip_mem+0xff7821d4>
  802258:	0005883a 	mov	r2,zero
  80225c:	003fec06 	br	802210 <__alt_mem_onchip_mem+0xff782210>
  802260:	88801415 	stw	r2,80(r17)
  802264:	003fd206 	br	8021b0 <__alt_mem_onchip_mem+0xff7821b0>
  802268:	28c00f17 	ldw	r3,60(r5)
  80226c:	00ffb316 	blt	zero,r3,80213c <__alt_mem_onchip_mem+0xff78213c>
  802270:	003fd706 	br	8021d0 <__alt_mem_onchip_mem+0xff7821d0>
  802274:	89400717 	ldw	r5,28(r17)
  802278:	000d883a 	mov	r6,zero
  80227c:	01c00044 	movi	r7,1
  802280:	9809883a 	mov	r4,r19
  802284:	403ee83a 	callr	r8
  802288:	100d883a 	mov	r6,r2
  80228c:	00bfffc4 	movi	r2,-1
  802290:	30801426 	beq	r6,r2,8022e4 <__sflush_r+0x1e4>
  802294:	8880030b 	ldhu	r2,12(r17)
  802298:	8a000a17 	ldw	r8,40(r17)
  80229c:	003fae06 	br	802158 <__alt_mem_onchip_mem+0xff782158>
  8022a0:	98c00017 	ldw	r3,0(r19)
  8022a4:	183fba26 	beq	r3,zero,802190 <__alt_mem_onchip_mem+0xff782190>
  8022a8:	01000744 	movi	r4,29
  8022ac:	19000626 	beq	r3,r4,8022c8 <__sflush_r+0x1c8>
  8022b0:	01000584 	movi	r4,22
  8022b4:	19000426 	beq	r3,r4,8022c8 <__sflush_r+0x1c8>
  8022b8:	88c0030b 	ldhu	r3,12(r17)
  8022bc:	18c01014 	ori	r3,r3,64
  8022c0:	88c0030d 	sth	r3,12(r17)
  8022c4:	003fc306 	br	8021d4 <__alt_mem_onchip_mem+0xff7821d4>
  8022c8:	8880030b 	ldhu	r2,12(r17)
  8022cc:	88c00417 	ldw	r3,16(r17)
  8022d0:	88000115 	stw	zero,4(r17)
  8022d4:	10bdffcc 	andi	r2,r2,63487
  8022d8:	8880030d 	sth	r2,12(r17)
  8022dc:	88c00015 	stw	r3,0(r17)
  8022e0:	003fb306 	br	8021b0 <__alt_mem_onchip_mem+0xff7821b0>
  8022e4:	98800017 	ldw	r2,0(r19)
  8022e8:	103fea26 	beq	r2,zero,802294 <__alt_mem_onchip_mem+0xff782294>
  8022ec:	00c00744 	movi	r3,29
  8022f0:	10c00226 	beq	r2,r3,8022fc <__sflush_r+0x1fc>
  8022f4:	00c00584 	movi	r3,22
  8022f8:	10c0031e 	bne	r2,r3,802308 <__sflush_r+0x208>
  8022fc:	9c000015 	stw	r16,0(r19)
  802300:	0005883a 	mov	r2,zero
  802304:	003fb306 	br	8021d4 <__alt_mem_onchip_mem+0xff7821d4>
  802308:	88c0030b 	ldhu	r3,12(r17)
  80230c:	3005883a 	mov	r2,r6
  802310:	18c01014 	ori	r3,r3,64
  802314:	88c0030d 	sth	r3,12(r17)
  802318:	003fae06 	br	8021d4 <__alt_mem_onchip_mem+0xff7821d4>

0080231c <_fflush_r>:
  80231c:	defffd04 	addi	sp,sp,-12
  802320:	dc000115 	stw	r16,4(sp)
  802324:	dfc00215 	stw	ra,8(sp)
  802328:	2021883a 	mov	r16,r4
  80232c:	20000226 	beq	r4,zero,802338 <_fflush_r+0x1c>
  802330:	20800e17 	ldw	r2,56(r4)
  802334:	10000c26 	beq	r2,zero,802368 <_fflush_r+0x4c>
  802338:	2880030f 	ldh	r2,12(r5)
  80233c:	1000051e 	bne	r2,zero,802354 <_fflush_r+0x38>
  802340:	0005883a 	mov	r2,zero
  802344:	dfc00217 	ldw	ra,8(sp)
  802348:	dc000117 	ldw	r16,4(sp)
  80234c:	dec00304 	addi	sp,sp,12
  802350:	f800283a 	ret
  802354:	8009883a 	mov	r4,r16
  802358:	dfc00217 	ldw	ra,8(sp)
  80235c:	dc000117 	ldw	r16,4(sp)
  802360:	dec00304 	addi	sp,sp,12
  802364:	08021001 	jmpi	802100 <__sflush_r>
  802368:	d9400015 	stw	r5,0(sp)
  80236c:	08027f00 	call	8027f0 <__sinit>
  802370:	d9400017 	ldw	r5,0(sp)
  802374:	003ff006 	br	802338 <__alt_mem_onchip_mem+0xff782338>

00802378 <fflush>:
  802378:	20000526 	beq	r4,zero,802390 <fflush+0x18>
  80237c:	00802074 	movhi	r2,129
  802380:	10955b04 	addi	r2,r2,21868
  802384:	200b883a 	mov	r5,r4
  802388:	11000017 	ldw	r4,0(r2)
  80238c:	080231c1 	jmpi	80231c <_fflush_r>
  802390:	00802074 	movhi	r2,129
  802394:	10955a04 	addi	r2,r2,21864
  802398:	11000017 	ldw	r4,0(r2)
  80239c:	01402034 	movhi	r5,128
  8023a0:	2948c704 	addi	r5,r5,8988
  8023a4:	080340c1 	jmpi	80340c <_fwalk_reent>

008023a8 <_fgetc_r>:
  8023a8:	defffd04 	addi	sp,sp,-12
  8023ac:	dc000115 	stw	r16,4(sp)
  8023b0:	dfc00215 	stw	ra,8(sp)
  8023b4:	2021883a 	mov	r16,r4
  8023b8:	20000226 	beq	r4,zero,8023c4 <_fgetc_r+0x1c>
  8023bc:	20800e17 	ldw	r2,56(r4)
  8023c0:	10000c26 	beq	r2,zero,8023f4 <_fgetc_r+0x4c>
  8023c4:	28800117 	ldw	r2,4(r5)
  8023c8:	10bfffc4 	addi	r2,r2,-1
  8023cc:	28800115 	stw	r2,4(r5)
  8023d0:	10000c16 	blt	r2,zero,802404 <_fgetc_r+0x5c>
  8023d4:	28800017 	ldw	r2,0(r5)
  8023d8:	10c00044 	addi	r3,r2,1
  8023dc:	28c00015 	stw	r3,0(r5)
  8023e0:	10800003 	ldbu	r2,0(r2)
  8023e4:	dfc00217 	ldw	ra,8(sp)
  8023e8:	dc000117 	ldw	r16,4(sp)
  8023ec:	dec00304 	addi	sp,sp,12
  8023f0:	f800283a 	ret
  8023f4:	d9400015 	stw	r5,0(sp)
  8023f8:	08027f00 	call	8027f0 <__sinit>
  8023fc:	d9400017 	ldw	r5,0(sp)
  802400:	003ff006 	br	8023c4 <__alt_mem_onchip_mem+0xff7823c4>
  802404:	8009883a 	mov	r4,r16
  802408:	dfc00217 	ldw	ra,8(sp)
  80240c:	dc000117 	ldw	r16,4(sp)
  802410:	dec00304 	addi	sp,sp,12
  802414:	08047201 	jmpi	804720 <__srget_r>

00802418 <fgetc>:
  802418:	00802074 	movhi	r2,129
  80241c:	defffd04 	addi	sp,sp,-12
  802420:	10955b04 	addi	r2,r2,21868
  802424:	dc400115 	stw	r17,4(sp)
  802428:	14400017 	ldw	r17,0(r2)
  80242c:	dc000015 	stw	r16,0(sp)
  802430:	dfc00215 	stw	ra,8(sp)
  802434:	2021883a 	mov	r16,r4
  802438:	88000226 	beq	r17,zero,802444 <fgetc+0x2c>
  80243c:	88800e17 	ldw	r2,56(r17)
  802440:	10000d26 	beq	r2,zero,802478 <fgetc+0x60>
  802444:	80800117 	ldw	r2,4(r16)
  802448:	10bfffc4 	addi	r2,r2,-1
  80244c:	80800115 	stw	r2,4(r16)
  802450:	10000c16 	blt	r2,zero,802484 <fgetc+0x6c>
  802454:	80800017 	ldw	r2,0(r16)
  802458:	10c00044 	addi	r3,r2,1
  80245c:	80c00015 	stw	r3,0(r16)
  802460:	10800003 	ldbu	r2,0(r2)
  802464:	dfc00217 	ldw	ra,8(sp)
  802468:	dc400117 	ldw	r17,4(sp)
  80246c:	dc000017 	ldw	r16,0(sp)
  802470:	dec00304 	addi	sp,sp,12
  802474:	f800283a 	ret
  802478:	8809883a 	mov	r4,r17
  80247c:	08027f00 	call	8027f0 <__sinit>
  802480:	003ff006 	br	802444 <__alt_mem_onchip_mem+0xff782444>
  802484:	800b883a 	mov	r5,r16
  802488:	8809883a 	mov	r4,r17
  80248c:	dfc00217 	ldw	ra,8(sp)
  802490:	dc400117 	ldw	r17,4(sp)
  802494:	dc000017 	ldw	r16,0(sp)
  802498:	dec00304 	addi	sp,sp,12
  80249c:	08047201 	jmpi	804720 <__srget_r>

008024a0 <__fp_unlock>:
  8024a0:	0005883a 	mov	r2,zero
  8024a4:	f800283a 	ret

008024a8 <_cleanup_r>:
  8024a8:	01402034 	movhi	r5,128
  8024ac:	2947ff04 	addi	r5,r5,8188
  8024b0:	080340c1 	jmpi	80340c <_fwalk_reent>

008024b4 <__sinit.part.1>:
  8024b4:	defff704 	addi	sp,sp,-36
  8024b8:	00c02034 	movhi	r3,128
  8024bc:	dfc00815 	stw	ra,32(sp)
  8024c0:	ddc00715 	stw	r23,28(sp)
  8024c4:	dd800615 	stw	r22,24(sp)
  8024c8:	dd400515 	stw	r21,20(sp)
  8024cc:	dd000415 	stw	r20,16(sp)
  8024d0:	dcc00315 	stw	r19,12(sp)
  8024d4:	dc800215 	stw	r18,8(sp)
  8024d8:	dc400115 	stw	r17,4(sp)
  8024dc:	dc000015 	stw	r16,0(sp)
  8024e0:	18c92a04 	addi	r3,r3,9384
  8024e4:	24000117 	ldw	r16,4(r4)
  8024e8:	20c00f15 	stw	r3,60(r4)
  8024ec:	2080bb04 	addi	r2,r4,748
  8024f0:	00c000c4 	movi	r3,3
  8024f4:	20c0b915 	stw	r3,740(r4)
  8024f8:	2080ba15 	stw	r2,744(r4)
  8024fc:	2000b815 	stw	zero,736(r4)
  802500:	05c00204 	movi	r23,8
  802504:	00800104 	movi	r2,4
  802508:	2025883a 	mov	r18,r4
  80250c:	b80d883a 	mov	r6,r23
  802510:	81001704 	addi	r4,r16,92
  802514:	000b883a 	mov	r5,zero
  802518:	80000015 	stw	zero,0(r16)
  80251c:	80000115 	stw	zero,4(r16)
  802520:	80000215 	stw	zero,8(r16)
  802524:	8080030d 	sth	r2,12(r16)
  802528:	80001915 	stw	zero,100(r16)
  80252c:	8000038d 	sth	zero,14(r16)
  802530:	80000415 	stw	zero,16(r16)
  802534:	80000515 	stw	zero,20(r16)
  802538:	80000615 	stw	zero,24(r16)
  80253c:	08040e00 	call	8040e0 <memset>
  802540:	05802034 	movhi	r22,128
  802544:	94400217 	ldw	r17,8(r18)
  802548:	05402034 	movhi	r21,128
  80254c:	05002034 	movhi	r20,128
  802550:	04c02034 	movhi	r19,128
  802554:	b591ff04 	addi	r22,r22,18428
  802558:	ad521604 	addi	r21,r21,18520
  80255c:	a5123504 	addi	r20,r20,18644
  802560:	9cd24c04 	addi	r19,r19,18736
  802564:	85800815 	stw	r22,32(r16)
  802568:	85400915 	stw	r21,36(r16)
  80256c:	85000a15 	stw	r20,40(r16)
  802570:	84c00b15 	stw	r19,44(r16)
  802574:	84000715 	stw	r16,28(r16)
  802578:	00800284 	movi	r2,10
  80257c:	8880030d 	sth	r2,12(r17)
  802580:	00800044 	movi	r2,1
  802584:	b80d883a 	mov	r6,r23
  802588:	89001704 	addi	r4,r17,92
  80258c:	000b883a 	mov	r5,zero
  802590:	88000015 	stw	zero,0(r17)
  802594:	88000115 	stw	zero,4(r17)
  802598:	88000215 	stw	zero,8(r17)
  80259c:	88001915 	stw	zero,100(r17)
  8025a0:	8880038d 	sth	r2,14(r17)
  8025a4:	88000415 	stw	zero,16(r17)
  8025a8:	88000515 	stw	zero,20(r17)
  8025ac:	88000615 	stw	zero,24(r17)
  8025b0:	08040e00 	call	8040e0 <memset>
  8025b4:	94000317 	ldw	r16,12(r18)
  8025b8:	00800484 	movi	r2,18
  8025bc:	8c400715 	stw	r17,28(r17)
  8025c0:	8d800815 	stw	r22,32(r17)
  8025c4:	8d400915 	stw	r21,36(r17)
  8025c8:	8d000a15 	stw	r20,40(r17)
  8025cc:	8cc00b15 	stw	r19,44(r17)
  8025d0:	8080030d 	sth	r2,12(r16)
  8025d4:	00800084 	movi	r2,2
  8025d8:	80000015 	stw	zero,0(r16)
  8025dc:	80000115 	stw	zero,4(r16)
  8025e0:	80000215 	stw	zero,8(r16)
  8025e4:	80001915 	stw	zero,100(r16)
  8025e8:	8080038d 	sth	r2,14(r16)
  8025ec:	80000415 	stw	zero,16(r16)
  8025f0:	80000515 	stw	zero,20(r16)
  8025f4:	80000615 	stw	zero,24(r16)
  8025f8:	b80d883a 	mov	r6,r23
  8025fc:	000b883a 	mov	r5,zero
  802600:	81001704 	addi	r4,r16,92
  802604:	08040e00 	call	8040e0 <memset>
  802608:	00800044 	movi	r2,1
  80260c:	84000715 	stw	r16,28(r16)
  802610:	85800815 	stw	r22,32(r16)
  802614:	85400915 	stw	r21,36(r16)
  802618:	85000a15 	stw	r20,40(r16)
  80261c:	84c00b15 	stw	r19,44(r16)
  802620:	90800e15 	stw	r2,56(r18)
  802624:	dfc00817 	ldw	ra,32(sp)
  802628:	ddc00717 	ldw	r23,28(sp)
  80262c:	dd800617 	ldw	r22,24(sp)
  802630:	dd400517 	ldw	r21,20(sp)
  802634:	dd000417 	ldw	r20,16(sp)
  802638:	dcc00317 	ldw	r19,12(sp)
  80263c:	dc800217 	ldw	r18,8(sp)
  802640:	dc400117 	ldw	r17,4(sp)
  802644:	dc000017 	ldw	r16,0(sp)
  802648:	dec00904 	addi	sp,sp,36
  80264c:	f800283a 	ret

00802650 <__fp_lock>:
  802650:	0005883a 	mov	r2,zero
  802654:	f800283a 	ret

00802658 <__sfmoreglue>:
  802658:	defffc04 	addi	sp,sp,-16
  80265c:	dc400115 	stw	r17,4(sp)
  802660:	2c7fffc4 	addi	r17,r5,-1
  802664:	8c401a24 	muli	r17,r17,104
  802668:	dc800215 	stw	r18,8(sp)
  80266c:	2825883a 	mov	r18,r5
  802670:	89401d04 	addi	r5,r17,116
  802674:	dc000015 	stw	r16,0(sp)
  802678:	dfc00315 	stw	ra,12(sp)
  80267c:	080378c0 	call	80378c <_malloc_r>
  802680:	1021883a 	mov	r16,r2
  802684:	10000726 	beq	r2,zero,8026a4 <__sfmoreglue+0x4c>
  802688:	11000304 	addi	r4,r2,12
  80268c:	10000015 	stw	zero,0(r2)
  802690:	14800115 	stw	r18,4(r2)
  802694:	11000215 	stw	r4,8(r2)
  802698:	89801a04 	addi	r6,r17,104
  80269c:	000b883a 	mov	r5,zero
  8026a0:	08040e00 	call	8040e0 <memset>
  8026a4:	8005883a 	mov	r2,r16
  8026a8:	dfc00317 	ldw	ra,12(sp)
  8026ac:	dc800217 	ldw	r18,8(sp)
  8026b0:	dc400117 	ldw	r17,4(sp)
  8026b4:	dc000017 	ldw	r16,0(sp)
  8026b8:	dec00404 	addi	sp,sp,16
  8026bc:	f800283a 	ret

008026c0 <__sfp>:
  8026c0:	defffb04 	addi	sp,sp,-20
  8026c4:	dc000015 	stw	r16,0(sp)
  8026c8:	04002074 	movhi	r16,129
  8026cc:	84155a04 	addi	r16,r16,21864
  8026d0:	dcc00315 	stw	r19,12(sp)
  8026d4:	2027883a 	mov	r19,r4
  8026d8:	81000017 	ldw	r4,0(r16)
  8026dc:	dfc00415 	stw	ra,16(sp)
  8026e0:	dc800215 	stw	r18,8(sp)
  8026e4:	20800e17 	ldw	r2,56(r4)
  8026e8:	dc400115 	stw	r17,4(sp)
  8026ec:	1000021e 	bne	r2,zero,8026f8 <__sfp+0x38>
  8026f0:	08024b40 	call	8024b4 <__sinit.part.1>
  8026f4:	81000017 	ldw	r4,0(r16)
  8026f8:	2480b804 	addi	r18,r4,736
  8026fc:	047fffc4 	movi	r17,-1
  802700:	91000117 	ldw	r4,4(r18)
  802704:	94000217 	ldw	r16,8(r18)
  802708:	213fffc4 	addi	r4,r4,-1
  80270c:	20000a16 	blt	r4,zero,802738 <__sfp+0x78>
  802710:	8080030f 	ldh	r2,12(r16)
  802714:	10000c26 	beq	r2,zero,802748 <__sfp+0x88>
  802718:	80c01d04 	addi	r3,r16,116
  80271c:	00000206 	br	802728 <__sfp+0x68>
  802720:	18bfe60f 	ldh	r2,-104(r3)
  802724:	10000826 	beq	r2,zero,802748 <__sfp+0x88>
  802728:	213fffc4 	addi	r4,r4,-1
  80272c:	1c3ffd04 	addi	r16,r3,-12
  802730:	18c01a04 	addi	r3,r3,104
  802734:	247ffa1e 	bne	r4,r17,802720 <__alt_mem_onchip_mem+0xff782720>
  802738:	90800017 	ldw	r2,0(r18)
  80273c:	10001d26 	beq	r2,zero,8027b4 <__sfp+0xf4>
  802740:	1025883a 	mov	r18,r2
  802744:	003fee06 	br	802700 <__alt_mem_onchip_mem+0xff782700>
  802748:	00bfffc4 	movi	r2,-1
  80274c:	8080038d 	sth	r2,14(r16)
  802750:	00800044 	movi	r2,1
  802754:	8080030d 	sth	r2,12(r16)
  802758:	80001915 	stw	zero,100(r16)
  80275c:	80000015 	stw	zero,0(r16)
  802760:	80000215 	stw	zero,8(r16)
  802764:	80000115 	stw	zero,4(r16)
  802768:	80000415 	stw	zero,16(r16)
  80276c:	80000515 	stw	zero,20(r16)
  802770:	80000615 	stw	zero,24(r16)
  802774:	01800204 	movi	r6,8
  802778:	000b883a 	mov	r5,zero
  80277c:	81001704 	addi	r4,r16,92
  802780:	08040e00 	call	8040e0 <memset>
  802784:	8005883a 	mov	r2,r16
  802788:	80000c15 	stw	zero,48(r16)
  80278c:	80000d15 	stw	zero,52(r16)
  802790:	80001115 	stw	zero,68(r16)
  802794:	80001215 	stw	zero,72(r16)
  802798:	dfc00417 	ldw	ra,16(sp)
  80279c:	dcc00317 	ldw	r19,12(sp)
  8027a0:	dc800217 	ldw	r18,8(sp)
  8027a4:	dc400117 	ldw	r17,4(sp)
  8027a8:	dc000017 	ldw	r16,0(sp)
  8027ac:	dec00504 	addi	sp,sp,20
  8027b0:	f800283a 	ret
  8027b4:	01400104 	movi	r5,4
  8027b8:	9809883a 	mov	r4,r19
  8027bc:	08026580 	call	802658 <__sfmoreglue>
  8027c0:	90800015 	stw	r2,0(r18)
  8027c4:	103fde1e 	bne	r2,zero,802740 <__alt_mem_onchip_mem+0xff782740>
  8027c8:	00800304 	movi	r2,12
  8027cc:	98800015 	stw	r2,0(r19)
  8027d0:	0005883a 	mov	r2,zero
  8027d4:	003ff006 	br	802798 <__alt_mem_onchip_mem+0xff782798>

008027d8 <_cleanup>:
  8027d8:	00802074 	movhi	r2,129
  8027dc:	10955a04 	addi	r2,r2,21864
  8027e0:	11000017 	ldw	r4,0(r2)
  8027e4:	01402034 	movhi	r5,128
  8027e8:	2947ff04 	addi	r5,r5,8188
  8027ec:	080340c1 	jmpi	80340c <_fwalk_reent>

008027f0 <__sinit>:
  8027f0:	20800e17 	ldw	r2,56(r4)
  8027f4:	10000126 	beq	r2,zero,8027fc <__sinit+0xc>
  8027f8:	f800283a 	ret
  8027fc:	08024b41 	jmpi	8024b4 <__sinit.part.1>

00802800 <__sfp_lock_acquire>:
  802800:	f800283a 	ret

00802804 <__sfp_lock_release>:
  802804:	f800283a 	ret

00802808 <__sinit_lock_acquire>:
  802808:	f800283a 	ret

0080280c <__sinit_lock_release>:
  80280c:	f800283a 	ret

00802810 <__fp_lock_all>:
  802810:	00802074 	movhi	r2,129
  802814:	10955b04 	addi	r2,r2,21868
  802818:	11000017 	ldw	r4,0(r2)
  80281c:	01402034 	movhi	r5,128
  802820:	29499404 	addi	r5,r5,9808
  802824:	08033481 	jmpi	803348 <_fwalk>

00802828 <__fp_unlock_all>:
  802828:	00802074 	movhi	r2,129
  80282c:	10955b04 	addi	r2,r2,21868
  802830:	11000017 	ldw	r4,0(r2)
  802834:	01402034 	movhi	r5,128
  802838:	29492804 	addi	r5,r5,9376
  80283c:	08033481 	jmpi	803348 <_fwalk>

00802840 <_fopen_r>:
  802840:	defffa04 	addi	sp,sp,-24
  802844:	3005883a 	mov	r2,r6
  802848:	dcc00415 	stw	r19,16(sp)
  80284c:	d80d883a 	mov	r6,sp
  802850:	2827883a 	mov	r19,r5
  802854:	100b883a 	mov	r5,r2
  802858:	dc800315 	stw	r18,12(sp)
  80285c:	dfc00515 	stw	ra,20(sp)
  802860:	dc400215 	stw	r17,8(sp)
  802864:	dc000115 	stw	r16,4(sp)
  802868:	2025883a 	mov	r18,r4
  80286c:	0808b980 	call	808b98 <__sflags>
  802870:	10002726 	beq	r2,zero,802910 <_fopen_r+0xd0>
  802874:	9009883a 	mov	r4,r18
  802878:	1023883a 	mov	r17,r2
  80287c:	08026c00 	call	8026c0 <__sfp>
  802880:	1021883a 	mov	r16,r2
  802884:	10002226 	beq	r2,zero,802910 <_fopen_r+0xd0>
  802888:	d9800017 	ldw	r6,0(sp)
  80288c:	01c06d84 	movi	r7,438
  802890:	980b883a 	mov	r5,r19
  802894:	9009883a 	mov	r4,r18
  802898:	08042080 	call	804208 <_open_r>
  80289c:	10001916 	blt	r2,zero,802904 <_fopen_r+0xc4>
  8028a0:	8080038d 	sth	r2,14(r16)
  8028a4:	00802034 	movhi	r2,128
  8028a8:	1091ff04 	addi	r2,r2,18428
  8028ac:	80800815 	stw	r2,32(r16)
  8028b0:	00802034 	movhi	r2,128
  8028b4:	10921604 	addi	r2,r2,18520
  8028b8:	80800915 	stw	r2,36(r16)
  8028bc:	00802034 	movhi	r2,128
  8028c0:	10923504 	addi	r2,r2,18644
  8028c4:	80800a15 	stw	r2,40(r16)
  8028c8:	00802034 	movhi	r2,128
  8028cc:	10924c04 	addi	r2,r2,18736
  8028d0:	8440030d 	sth	r17,12(r16)
  8028d4:	84000715 	stw	r16,28(r16)
  8028d8:	80800b15 	stw	r2,44(r16)
  8028dc:	8c40400c 	andi	r17,r17,256
  8028e0:	88000d1e 	bne	r17,zero,802918 <_fopen_r+0xd8>
  8028e4:	8005883a 	mov	r2,r16
  8028e8:	dfc00517 	ldw	ra,20(sp)
  8028ec:	dcc00417 	ldw	r19,16(sp)
  8028f0:	dc800317 	ldw	r18,12(sp)
  8028f4:	dc400217 	ldw	r17,8(sp)
  8028f8:	dc000117 	ldw	r16,4(sp)
  8028fc:	dec00604 	addi	sp,sp,24
  802900:	f800283a 	ret
  802904:	08028000 	call	802800 <__sfp_lock_acquire>
  802908:	8000030d 	sth	zero,12(r16)
  80290c:	08028040 	call	802804 <__sfp_lock_release>
  802910:	0005883a 	mov	r2,zero
  802914:	003ff406 	br	8028e8 <__alt_mem_onchip_mem+0xff7828e8>
  802918:	01c00084 	movi	r7,2
  80291c:	000d883a 	mov	r6,zero
  802920:	800b883a 	mov	r5,r16
  802924:	9009883a 	mov	r4,r18
  802928:	0802e6c0 	call	802e6c <_fseek_r>
  80292c:	8005883a 	mov	r2,r16
  802930:	003fed06 	br	8028e8 <__alt_mem_onchip_mem+0xff7828e8>

00802934 <fopen>:
  802934:	00802074 	movhi	r2,129
  802938:	10955b04 	addi	r2,r2,21868
  80293c:	280d883a 	mov	r6,r5
  802940:	200b883a 	mov	r5,r4
  802944:	11000017 	ldw	r4,0(r2)
  802948:	08028401 	jmpi	802840 <_fopen_r>

0080294c <_fprintf_r>:
  80294c:	defffe04 	addi	sp,sp,-8
  802950:	2809883a 	mov	r4,r5
  802954:	300b883a 	mov	r5,r6
  802958:	dfc00015 	stw	ra,0(sp)
  80295c:	d9c00115 	stw	r7,4(sp)
  802960:	d9800104 	addi	r6,sp,4
  802964:	0806ed80 	call	806ed8 <__vfprintf_internal>
  802968:	dfc00017 	ldw	ra,0(sp)
  80296c:	dec00204 	addi	sp,sp,8
  802970:	f800283a 	ret

00802974 <fprintf>:
  802974:	defffd04 	addi	sp,sp,-12
  802978:	dfc00015 	stw	ra,0(sp)
  80297c:	d9800115 	stw	r6,4(sp)
  802980:	d9c00215 	stw	r7,8(sp)
  802984:	d9800104 	addi	r6,sp,4
  802988:	0806ed80 	call	806ed8 <__vfprintf_internal>
  80298c:	dfc00017 	ldw	ra,0(sp)
  802990:	dec00304 	addi	sp,sp,12
  802994:	f800283a 	ret

00802998 <_fputc_r>:
  802998:	defffc04 	addi	sp,sp,-16
  80299c:	dc000215 	stw	r16,8(sp)
  8029a0:	dfc00315 	stw	ra,12(sp)
  8029a4:	2021883a 	mov	r16,r4
  8029a8:	20000726 	beq	r4,zero,8029c8 <_fputc_r+0x30>
  8029ac:	20800e17 	ldw	r2,56(r4)
  8029b0:	1000051e 	bne	r2,zero,8029c8 <_fputc_r+0x30>
  8029b4:	d9400015 	stw	r5,0(sp)
  8029b8:	d9800115 	stw	r6,4(sp)
  8029bc:	08027f00 	call	8027f0 <__sinit>
  8029c0:	d9800117 	ldw	r6,4(sp)
  8029c4:	d9400017 	ldw	r5,0(sp)
  8029c8:	8009883a 	mov	r4,r16
  8029cc:	dfc00317 	ldw	ra,12(sp)
  8029d0:	dc000217 	ldw	r16,8(sp)
  8029d4:	dec00404 	addi	sp,sp,16
  8029d8:	08042d41 	jmpi	8042d4 <_putc_r>

008029dc <fputc>:
  8029dc:	00802074 	movhi	r2,129
  8029e0:	defffc04 	addi	sp,sp,-16
  8029e4:	10955b04 	addi	r2,r2,21868
  8029e8:	dc000115 	stw	r16,4(sp)
  8029ec:	14000017 	ldw	r16,0(r2)
  8029f0:	dc400215 	stw	r17,8(sp)
  8029f4:	dfc00315 	stw	ra,12(sp)
  8029f8:	2023883a 	mov	r17,r4
  8029fc:	80000626 	beq	r16,zero,802a18 <fputc+0x3c>
  802a00:	80800e17 	ldw	r2,56(r16)
  802a04:	1000041e 	bne	r2,zero,802a18 <fputc+0x3c>
  802a08:	8009883a 	mov	r4,r16
  802a0c:	d9400015 	stw	r5,0(sp)
  802a10:	08027f00 	call	8027f0 <__sinit>
  802a14:	d9400017 	ldw	r5,0(sp)
  802a18:	280d883a 	mov	r6,r5
  802a1c:	8009883a 	mov	r4,r16
  802a20:	880b883a 	mov	r5,r17
  802a24:	dfc00317 	ldw	ra,12(sp)
  802a28:	dc400217 	ldw	r17,8(sp)
  802a2c:	dc000117 	ldw	r16,4(sp)
  802a30:	dec00404 	addi	sp,sp,16
  802a34:	08042d41 	jmpi	8042d4 <_putc_r>

00802a38 <_malloc_trim_r>:
  802a38:	defffb04 	addi	sp,sp,-20
  802a3c:	dcc00315 	stw	r19,12(sp)
  802a40:	04c02074 	movhi	r19,129
  802a44:	dc800215 	stw	r18,8(sp)
  802a48:	dc400115 	stw	r17,4(sp)
  802a4c:	dc000015 	stw	r16,0(sp)
  802a50:	dfc00415 	stw	ra,16(sp)
  802a54:	2821883a 	mov	r16,r5
  802a58:	9ccf3704 	addi	r19,r19,15580
  802a5c:	2025883a 	mov	r18,r4
  802a60:	080f5f40 	call	80f5f4 <__malloc_lock>
  802a64:	98800217 	ldw	r2,8(r19)
  802a68:	14400117 	ldw	r17,4(r2)
  802a6c:	00bfff04 	movi	r2,-4
  802a70:	88a2703a 	and	r17,r17,r2
  802a74:	8c21c83a 	sub	r16,r17,r16
  802a78:	8403fbc4 	addi	r16,r16,4079
  802a7c:	8020d33a 	srli	r16,r16,12
  802a80:	0083ffc4 	movi	r2,4095
  802a84:	843fffc4 	addi	r16,r16,-1
  802a88:	8020933a 	slli	r16,r16,12
  802a8c:	1400060e 	bge	r2,r16,802aa8 <_malloc_trim_r+0x70>
  802a90:	000b883a 	mov	r5,zero
  802a94:	9009883a 	mov	r4,r18
  802a98:	08047a80 	call	8047a8 <_sbrk_r>
  802a9c:	98c00217 	ldw	r3,8(r19)
  802aa0:	1c47883a 	add	r3,r3,r17
  802aa4:	10c00a26 	beq	r2,r3,802ad0 <_malloc_trim_r+0x98>
  802aa8:	9009883a 	mov	r4,r18
  802aac:	080f6180 	call	80f618 <__malloc_unlock>
  802ab0:	0005883a 	mov	r2,zero
  802ab4:	dfc00417 	ldw	ra,16(sp)
  802ab8:	dcc00317 	ldw	r19,12(sp)
  802abc:	dc800217 	ldw	r18,8(sp)
  802ac0:	dc400117 	ldw	r17,4(sp)
  802ac4:	dc000017 	ldw	r16,0(sp)
  802ac8:	dec00504 	addi	sp,sp,20
  802acc:	f800283a 	ret
  802ad0:	040bc83a 	sub	r5,zero,r16
  802ad4:	9009883a 	mov	r4,r18
  802ad8:	08047a80 	call	8047a8 <_sbrk_r>
  802adc:	00ffffc4 	movi	r3,-1
  802ae0:	10c00d26 	beq	r2,r3,802b18 <_malloc_trim_r+0xe0>
  802ae4:	00c02074 	movhi	r3,129
  802ae8:	18dcca04 	addi	r3,r3,29480
  802aec:	18800017 	ldw	r2,0(r3)
  802af0:	99000217 	ldw	r4,8(r19)
  802af4:	8c23c83a 	sub	r17,r17,r16
  802af8:	8c400054 	ori	r17,r17,1
  802afc:	1421c83a 	sub	r16,r2,r16
  802b00:	24400115 	stw	r17,4(r4)
  802b04:	9009883a 	mov	r4,r18
  802b08:	1c000015 	stw	r16,0(r3)
  802b0c:	080f6180 	call	80f618 <__malloc_unlock>
  802b10:	00800044 	movi	r2,1
  802b14:	003fe706 	br	802ab4 <__alt_mem_onchip_mem+0xff782ab4>
  802b18:	000b883a 	mov	r5,zero
  802b1c:	9009883a 	mov	r4,r18
  802b20:	08047a80 	call	8047a8 <_sbrk_r>
  802b24:	99000217 	ldw	r4,8(r19)
  802b28:	014003c4 	movi	r5,15
  802b2c:	1107c83a 	sub	r3,r2,r4
  802b30:	28ffdd0e 	bge	r5,r3,802aa8 <__alt_mem_onchip_mem+0xff782aa8>
  802b34:	01402074 	movhi	r5,129
  802b38:	29555c04 	addi	r5,r5,21872
  802b3c:	29400017 	ldw	r5,0(r5)
  802b40:	18c00054 	ori	r3,r3,1
  802b44:	20c00115 	stw	r3,4(r4)
  802b48:	00c02074 	movhi	r3,129
  802b4c:	1145c83a 	sub	r2,r2,r5
  802b50:	18dcca04 	addi	r3,r3,29480
  802b54:	18800015 	stw	r2,0(r3)
  802b58:	003fd306 	br	802aa8 <__alt_mem_onchip_mem+0xff782aa8>

00802b5c <_free_r>:
  802b5c:	28004126 	beq	r5,zero,802c64 <_free_r+0x108>
  802b60:	defffd04 	addi	sp,sp,-12
  802b64:	dc400115 	stw	r17,4(sp)
  802b68:	dc000015 	stw	r16,0(sp)
  802b6c:	2023883a 	mov	r17,r4
  802b70:	2821883a 	mov	r16,r5
  802b74:	dfc00215 	stw	ra,8(sp)
  802b78:	080f5f40 	call	80f5f4 <__malloc_lock>
  802b7c:	81ffff17 	ldw	r7,-4(r16)
  802b80:	00bfff84 	movi	r2,-2
  802b84:	01002074 	movhi	r4,129
  802b88:	81bffe04 	addi	r6,r16,-8
  802b8c:	3884703a 	and	r2,r7,r2
  802b90:	210f3704 	addi	r4,r4,15580
  802b94:	308b883a 	add	r5,r6,r2
  802b98:	2a400117 	ldw	r9,4(r5)
  802b9c:	22000217 	ldw	r8,8(r4)
  802ba0:	00ffff04 	movi	r3,-4
  802ba4:	48c6703a 	and	r3,r9,r3
  802ba8:	2a005726 	beq	r5,r8,802d08 <_free_r+0x1ac>
  802bac:	28c00115 	stw	r3,4(r5)
  802bb0:	39c0004c 	andi	r7,r7,1
  802bb4:	3800091e 	bne	r7,zero,802bdc <_free_r+0x80>
  802bb8:	823ffe17 	ldw	r8,-8(r16)
  802bbc:	22400204 	addi	r9,r4,8
  802bc0:	320dc83a 	sub	r6,r6,r8
  802bc4:	31c00217 	ldw	r7,8(r6)
  802bc8:	1205883a 	add	r2,r2,r8
  802bcc:	3a406526 	beq	r7,r9,802d64 <_free_r+0x208>
  802bd0:	32000317 	ldw	r8,12(r6)
  802bd4:	3a000315 	stw	r8,12(r7)
  802bd8:	41c00215 	stw	r7,8(r8)
  802bdc:	28cf883a 	add	r7,r5,r3
  802be0:	39c00117 	ldw	r7,4(r7)
  802be4:	39c0004c 	andi	r7,r7,1
  802be8:	38003a26 	beq	r7,zero,802cd4 <_free_r+0x178>
  802bec:	10c00054 	ori	r3,r2,1
  802bf0:	30c00115 	stw	r3,4(r6)
  802bf4:	3087883a 	add	r3,r6,r2
  802bf8:	18800015 	stw	r2,0(r3)
  802bfc:	00c07fc4 	movi	r3,511
  802c00:	18801936 	bltu	r3,r2,802c68 <_free_r+0x10c>
  802c04:	1004d0fa 	srli	r2,r2,3
  802c08:	01c00044 	movi	r7,1
  802c0c:	21400117 	ldw	r5,4(r4)
  802c10:	10c00044 	addi	r3,r2,1
  802c14:	18c7883a 	add	r3,r3,r3
  802c18:	1005d0ba 	srai	r2,r2,2
  802c1c:	18c7883a 	add	r3,r3,r3
  802c20:	18c7883a 	add	r3,r3,r3
  802c24:	1907883a 	add	r3,r3,r4
  802c28:	3884983a 	sll	r2,r7,r2
  802c2c:	19c00017 	ldw	r7,0(r3)
  802c30:	1a3ffe04 	addi	r8,r3,-8
  802c34:	1144b03a 	or	r2,r2,r5
  802c38:	32000315 	stw	r8,12(r6)
  802c3c:	31c00215 	stw	r7,8(r6)
  802c40:	20800115 	stw	r2,4(r4)
  802c44:	19800015 	stw	r6,0(r3)
  802c48:	39800315 	stw	r6,12(r7)
  802c4c:	8809883a 	mov	r4,r17
  802c50:	dfc00217 	ldw	ra,8(sp)
  802c54:	dc400117 	ldw	r17,4(sp)
  802c58:	dc000017 	ldw	r16,0(sp)
  802c5c:	dec00304 	addi	sp,sp,12
  802c60:	080f6181 	jmpi	80f618 <__malloc_unlock>
  802c64:	f800283a 	ret
  802c68:	100ad27a 	srli	r5,r2,9
  802c6c:	00c00104 	movi	r3,4
  802c70:	19404a36 	bltu	r3,r5,802d9c <_free_r+0x240>
  802c74:	100ad1ba 	srli	r5,r2,6
  802c78:	28c00e44 	addi	r3,r5,57
  802c7c:	18c7883a 	add	r3,r3,r3
  802c80:	29400e04 	addi	r5,r5,56
  802c84:	18c7883a 	add	r3,r3,r3
  802c88:	18c7883a 	add	r3,r3,r3
  802c8c:	1909883a 	add	r4,r3,r4
  802c90:	20c00017 	ldw	r3,0(r4)
  802c94:	01c02074 	movhi	r7,129
  802c98:	213ffe04 	addi	r4,r4,-8
  802c9c:	39cf3704 	addi	r7,r7,15580
  802ca0:	20c04426 	beq	r4,r3,802db4 <_free_r+0x258>
  802ca4:	01ffff04 	movi	r7,-4
  802ca8:	19400117 	ldw	r5,4(r3)
  802cac:	29ca703a 	and	r5,r5,r7
  802cb0:	1140022e 	bgeu	r2,r5,802cbc <_free_r+0x160>
  802cb4:	18c00217 	ldw	r3,8(r3)
  802cb8:	20fffb1e 	bne	r4,r3,802ca8 <__alt_mem_onchip_mem+0xff782ca8>
  802cbc:	19000317 	ldw	r4,12(r3)
  802cc0:	31000315 	stw	r4,12(r6)
  802cc4:	30c00215 	stw	r3,8(r6)
  802cc8:	21800215 	stw	r6,8(r4)
  802ccc:	19800315 	stw	r6,12(r3)
  802cd0:	003fde06 	br	802c4c <__alt_mem_onchip_mem+0xff782c4c>
  802cd4:	29c00217 	ldw	r7,8(r5)
  802cd8:	10c5883a 	add	r2,r2,r3
  802cdc:	00c02074 	movhi	r3,129
  802ce0:	18cf3904 	addi	r3,r3,15588
  802ce4:	38c03b26 	beq	r7,r3,802dd4 <_free_r+0x278>
  802ce8:	2a000317 	ldw	r8,12(r5)
  802cec:	11400054 	ori	r5,r2,1
  802cf0:	3087883a 	add	r3,r6,r2
  802cf4:	3a000315 	stw	r8,12(r7)
  802cf8:	41c00215 	stw	r7,8(r8)
  802cfc:	31400115 	stw	r5,4(r6)
  802d00:	18800015 	stw	r2,0(r3)
  802d04:	003fbd06 	br	802bfc <__alt_mem_onchip_mem+0xff782bfc>
  802d08:	39c0004c 	andi	r7,r7,1
  802d0c:	10c5883a 	add	r2,r2,r3
  802d10:	3800071e 	bne	r7,zero,802d30 <_free_r+0x1d4>
  802d14:	81fffe17 	ldw	r7,-8(r16)
  802d18:	31cdc83a 	sub	r6,r6,r7
  802d1c:	30c00317 	ldw	r3,12(r6)
  802d20:	31400217 	ldw	r5,8(r6)
  802d24:	11c5883a 	add	r2,r2,r7
  802d28:	28c00315 	stw	r3,12(r5)
  802d2c:	19400215 	stw	r5,8(r3)
  802d30:	10c00054 	ori	r3,r2,1
  802d34:	30c00115 	stw	r3,4(r6)
  802d38:	00c02074 	movhi	r3,129
  802d3c:	18d55d04 	addi	r3,r3,21876
  802d40:	18c00017 	ldw	r3,0(r3)
  802d44:	21800215 	stw	r6,8(r4)
  802d48:	10ffc036 	bltu	r2,r3,802c4c <__alt_mem_onchip_mem+0xff782c4c>
  802d4c:	00802074 	movhi	r2,129
  802d50:	109cbf04 	addi	r2,r2,29436
  802d54:	11400017 	ldw	r5,0(r2)
  802d58:	8809883a 	mov	r4,r17
  802d5c:	0802a380 	call	802a38 <_malloc_trim_r>
  802d60:	003fba06 	br	802c4c <__alt_mem_onchip_mem+0xff782c4c>
  802d64:	28c9883a 	add	r4,r5,r3
  802d68:	21000117 	ldw	r4,4(r4)
  802d6c:	2100004c 	andi	r4,r4,1
  802d70:	2000391e 	bne	r4,zero,802e58 <_free_r+0x2fc>
  802d74:	29c00217 	ldw	r7,8(r5)
  802d78:	29000317 	ldw	r4,12(r5)
  802d7c:	1885883a 	add	r2,r3,r2
  802d80:	10c00054 	ori	r3,r2,1
  802d84:	39000315 	stw	r4,12(r7)
  802d88:	21c00215 	stw	r7,8(r4)
  802d8c:	30c00115 	stw	r3,4(r6)
  802d90:	308d883a 	add	r6,r6,r2
  802d94:	30800015 	stw	r2,0(r6)
  802d98:	003fac06 	br	802c4c <__alt_mem_onchip_mem+0xff782c4c>
  802d9c:	00c00504 	movi	r3,20
  802da0:	19401536 	bltu	r3,r5,802df8 <_free_r+0x29c>
  802da4:	28c01704 	addi	r3,r5,92
  802da8:	18c7883a 	add	r3,r3,r3
  802dac:	294016c4 	addi	r5,r5,91
  802db0:	003fb406 	br	802c84 <__alt_mem_onchip_mem+0xff782c84>
  802db4:	280bd0ba 	srai	r5,r5,2
  802db8:	00c00044 	movi	r3,1
  802dbc:	38800117 	ldw	r2,4(r7)
  802dc0:	194a983a 	sll	r5,r3,r5
  802dc4:	2007883a 	mov	r3,r4
  802dc8:	2884b03a 	or	r2,r5,r2
  802dcc:	38800115 	stw	r2,4(r7)
  802dd0:	003fbb06 	br	802cc0 <__alt_mem_onchip_mem+0xff782cc0>
  802dd4:	21800515 	stw	r6,20(r4)
  802dd8:	21800415 	stw	r6,16(r4)
  802ddc:	10c00054 	ori	r3,r2,1
  802de0:	31c00315 	stw	r7,12(r6)
  802de4:	31c00215 	stw	r7,8(r6)
  802de8:	30c00115 	stw	r3,4(r6)
  802dec:	308d883a 	add	r6,r6,r2
  802df0:	30800015 	stw	r2,0(r6)
  802df4:	003f9506 	br	802c4c <__alt_mem_onchip_mem+0xff782c4c>
  802df8:	00c01504 	movi	r3,84
  802dfc:	19400536 	bltu	r3,r5,802e14 <_free_r+0x2b8>
  802e00:	100ad33a 	srli	r5,r2,12
  802e04:	28c01bc4 	addi	r3,r5,111
  802e08:	18c7883a 	add	r3,r3,r3
  802e0c:	29401b84 	addi	r5,r5,110
  802e10:	003f9c06 	br	802c84 <__alt_mem_onchip_mem+0xff782c84>
  802e14:	00c05504 	movi	r3,340
  802e18:	19400536 	bltu	r3,r5,802e30 <_free_r+0x2d4>
  802e1c:	100ad3fa 	srli	r5,r2,15
  802e20:	28c01e04 	addi	r3,r5,120
  802e24:	18c7883a 	add	r3,r3,r3
  802e28:	29401dc4 	addi	r5,r5,119
  802e2c:	003f9506 	br	802c84 <__alt_mem_onchip_mem+0xff782c84>
  802e30:	00c15504 	movi	r3,1364
  802e34:	19400536 	bltu	r3,r5,802e4c <_free_r+0x2f0>
  802e38:	100ad4ba 	srli	r5,r2,18
  802e3c:	28c01f44 	addi	r3,r5,125
  802e40:	18c7883a 	add	r3,r3,r3
  802e44:	29401f04 	addi	r5,r5,124
  802e48:	003f8e06 	br	802c84 <__alt_mem_onchip_mem+0xff782c84>
  802e4c:	00c03f84 	movi	r3,254
  802e50:	01401f84 	movi	r5,126
  802e54:	003f8b06 	br	802c84 <__alt_mem_onchip_mem+0xff782c84>
  802e58:	10c00054 	ori	r3,r2,1
  802e5c:	30c00115 	stw	r3,4(r6)
  802e60:	308d883a 	add	r6,r6,r2
  802e64:	30800015 	stw	r2,0(r6)
  802e68:	003f7806 	br	802c4c <__alt_mem_onchip_mem+0xff782c4c>

00802e6c <_fseek_r>:
  802e6c:	0802e8c1 	jmpi	802e8c <_fseeko_r>

00802e70 <fseek>:
  802e70:	00802074 	movhi	r2,129
  802e74:	10955b04 	addi	r2,r2,21868
  802e78:	300f883a 	mov	r7,r6
  802e7c:	280d883a 	mov	r6,r5
  802e80:	200b883a 	mov	r5,r4
  802e84:	11000017 	ldw	r4,0(r2)
  802e88:	0802e8c1 	jmpi	802e8c <_fseeko_r>

00802e8c <_fseeko_r>:
  802e8c:	deffe804 	addi	sp,sp,-96
  802e90:	dd401415 	stw	r21,80(sp)
  802e94:	dc801115 	stw	r18,68(sp)
  802e98:	dc401015 	stw	r17,64(sp)
  802e9c:	dc000f15 	stw	r16,60(sp)
  802ea0:	dfc01715 	stw	ra,92(sp)
  802ea4:	ddc01615 	stw	r23,88(sp)
  802ea8:	dd801515 	stw	r22,84(sp)
  802eac:	dd001315 	stw	r20,76(sp)
  802eb0:	dcc01215 	stw	r19,72(sp)
  802eb4:	2023883a 	mov	r17,r4
  802eb8:	2821883a 	mov	r16,r5
  802ebc:	302b883a 	mov	r21,r6
  802ec0:	3825883a 	mov	r18,r7
  802ec4:	20000226 	beq	r4,zero,802ed0 <_fseeko_r+0x44>
  802ec8:	20800e17 	ldw	r2,56(r4)
  802ecc:	10005a26 	beq	r2,zero,803038 <_fseeko_r+0x1ac>
  802ed0:	8080030b 	ldhu	r2,12(r16)
  802ed4:	00c04204 	movi	r3,264
  802ed8:	1080420c 	andi	r2,r2,264
  802edc:	10c05b26 	beq	r2,r3,80304c <_fseeko_r+0x1c0>
  802ee0:	85000a17 	ldw	r20,40(r16)
  802ee4:	a000f626 	beq	r20,zero,8032c0 <_fseeko_r+0x434>
  802ee8:	00800044 	movi	r2,1
  802eec:	90803e26 	beq	r18,r2,802fe8 <_fseeko_r+0x15c>
  802ef0:	00800084 	movi	r2,2
  802ef4:	90801026 	beq	r18,r2,802f38 <_fseeko_r+0xac>
  802ef8:	90000f26 	beq	r18,zero,802f38 <_fseeko_r+0xac>
  802efc:	00800584 	movi	r2,22
  802f00:	88800015 	stw	r2,0(r17)
  802f04:	04ffffc4 	movi	r19,-1
  802f08:	9805883a 	mov	r2,r19
  802f0c:	dfc01717 	ldw	ra,92(sp)
  802f10:	ddc01617 	ldw	r23,88(sp)
  802f14:	dd801517 	ldw	r22,84(sp)
  802f18:	dd401417 	ldw	r21,80(sp)
  802f1c:	dd001317 	ldw	r20,76(sp)
  802f20:	dcc01217 	ldw	r19,72(sp)
  802f24:	dc801117 	ldw	r18,68(sp)
  802f28:	dc401017 	ldw	r17,64(sp)
  802f2c:	dc000f17 	ldw	r16,60(sp)
  802f30:	dec01804 	addi	sp,sp,96
  802f34:	f800283a 	ret
  802f38:	80800417 	ldw	r2,16(r16)
  802f3c:	002f883a 	mov	r23,zero
  802f40:	0027883a 	mov	r19,zero
  802f44:	1000cb26 	beq	r2,zero,803274 <_fseeko_r+0x3e8>
  802f48:	8080030b 	ldhu	r2,12(r16)
  802f4c:	10c2068c 	andi	r3,r2,2074
  802f50:	1800071e 	bne	r3,zero,802f70 <_fseeko_r+0xe4>
  802f54:	10c1000c 	andi	r3,r2,1024
  802f58:	1800451e 	bne	r3,zero,803070 <_fseeko_r+0x1e4>
  802f5c:	00c02034 	movhi	r3,128
  802f60:	18d23504 	addi	r3,r3,18644
  802f64:	a0c0b726 	beq	r20,r3,803244 <_fseeko_r+0x3b8>
  802f68:	10820014 	ori	r2,r2,2048
  802f6c:	8080030d 	sth	r2,12(r16)
  802f70:	800b883a 	mov	r5,r16
  802f74:	8809883a 	mov	r4,r17
  802f78:	080231c0 	call	80231c <_fflush_r>
  802f7c:	1027883a 	mov	r19,r2
  802f80:	103fe01e 	bne	r2,zero,802f04 <__alt_mem_onchip_mem+0xff782f04>
  802f84:	81400717 	ldw	r5,28(r16)
  802f88:	900f883a 	mov	r7,r18
  802f8c:	a80d883a 	mov	r6,r21
  802f90:	8809883a 	mov	r4,r17
  802f94:	a03ee83a 	callr	r20
  802f98:	00ffffc4 	movi	r3,-1
  802f9c:	10ffd926 	beq	r2,r3,802f04 <__alt_mem_onchip_mem+0xff782f04>
  802fa0:	81400c17 	ldw	r5,48(r16)
  802fa4:	28000526 	beq	r5,zero,802fbc <_fseeko_r+0x130>
  802fa8:	80801004 	addi	r2,r16,64
  802fac:	28800226 	beq	r5,r2,802fb8 <_fseeko_r+0x12c>
  802fb0:	8809883a 	mov	r4,r17
  802fb4:	0802b5c0 	call	802b5c <_free_r>
  802fb8:	80000c15 	stw	zero,48(r16)
  802fbc:	8080030b 	ldhu	r2,12(r16)
  802fc0:	80c00417 	ldw	r3,16(r16)
  802fc4:	80000115 	stw	zero,4(r16)
  802fc8:	10bdf7cc 	andi	r2,r2,63455
  802fcc:	80c00015 	stw	r3,0(r16)
  802fd0:	8080030d 	sth	r2,12(r16)
  802fd4:	01800204 	movi	r6,8
  802fd8:	000b883a 	mov	r5,zero
  802fdc:	81001704 	addi	r4,r16,92
  802fe0:	08040e00 	call	8040e0 <memset>
  802fe4:	003fc806 	br	802f08 <__alt_mem_onchip_mem+0xff782f08>
  802fe8:	800b883a 	mov	r5,r16
  802fec:	8809883a 	mov	r4,r17
  802ff0:	080231c0 	call	80231c <_fflush_r>
  802ff4:	8080030b 	ldhu	r2,12(r16)
  802ff8:	10c4000c 	andi	r3,r2,4096
  802ffc:	18008726 	beq	r3,zero,80321c <_fseeko_r+0x390>
  803000:	84c01417 	ldw	r19,80(r16)
  803004:	10c0010c 	andi	r3,r2,4
  803008:	1800431e 	bne	r3,zero,803118 <_fseeko_r+0x28c>
  80300c:	1080020c 	andi	r2,r2,8
  803010:	10008026 	beq	r2,zero,803214 <_fseeko_r+0x388>
  803014:	80c00017 	ldw	r3,0(r16)
  803018:	80800417 	ldw	r2,16(r16)
  80301c:	18000226 	beq	r3,zero,803028 <_fseeko_r+0x19c>
  803020:	1887c83a 	sub	r3,r3,r2
  803024:	98e7883a 	add	r19,r19,r3
  803028:	aceb883a 	add	r21,r21,r19
  80302c:	05c00044 	movi	r23,1
  803030:	0025883a 	mov	r18,zero
  803034:	003fc306 	br	802f44 <__alt_mem_onchip_mem+0xff782f44>
  803038:	08027f00 	call	8027f0 <__sinit>
  80303c:	8080030b 	ldhu	r2,12(r16)
  803040:	00c04204 	movi	r3,264
  803044:	1080420c 	andi	r2,r2,264
  803048:	10ffa51e 	bne	r2,r3,802ee0 <__alt_mem_onchip_mem+0xff782ee0>
  80304c:	800b883a 	mov	r5,r16
  803050:	8809883a 	mov	r4,r17
  803054:	080231c0 	call	80231c <_fflush_r>
  803058:	003fa106 	br	802ee0 <__alt_mem_onchip_mem+0xff782ee0>
  80305c:	8080030b 	ldhu	r2,12(r16)
  803060:	00c10004 	movi	r3,1024
  803064:	80c01315 	stw	r3,76(r16)
  803068:	10c4b03a 	or	r2,r2,r3
  80306c:	8080030d 	sth	r2,12(r16)
  803070:	9000311e 	bne	r18,zero,803138 <_fseeko_r+0x2ac>
  803074:	a82d883a 	mov	r22,r21
  803078:	b800371e 	bne	r23,zero,803158 <_fseeko_r+0x2cc>
  80307c:	8080030b 	ldhu	r2,12(r16)
  803080:	1084000c 	andi	r2,r2,4096
  803084:	10007f26 	beq	r2,zero,803284 <_fseeko_r+0x3f8>
  803088:	80801417 	ldw	r2,80(r16)
  80308c:	81800117 	ldw	r6,4(r16)
  803090:	81400c17 	ldw	r5,48(r16)
  803094:	11a7c83a 	sub	r19,r2,r6
  803098:	28008226 	beq	r5,zero,8032a4 <_fseeko_r+0x418>
  80309c:	81c00f17 	ldw	r7,60(r16)
  8030a0:	99e7c83a 	sub	r19,r19,r7
  8030a4:	81000e17 	ldw	r4,56(r16)
  8030a8:	80800417 	ldw	r2,16(r16)
  8030ac:	99a7883a 	add	r19,r19,r6
  8030b0:	2087c83a 	sub	r3,r4,r2
  8030b4:	98e7c83a 	sub	r19,r19,r3
  8030b8:	38c7883a 	add	r3,r7,r3
  8030bc:	b4c02b16 	blt	r22,r19,80316c <_fseeko_r+0x2e0>
  8030c0:	98c9883a 	add	r4,r19,r3
  8030c4:	b100292e 	bgeu	r22,r4,80316c <_fseeko_r+0x2e0>
  8030c8:	b4e7c83a 	sub	r19,r22,r19
  8030cc:	14c5883a 	add	r2,r2,r19
  8030d0:	1ce7c83a 	sub	r19,r3,r19
  8030d4:	80800015 	stw	r2,0(r16)
  8030d8:	84c00115 	stw	r19,4(r16)
  8030dc:	28000526 	beq	r5,zero,8030f4 <_fseeko_r+0x268>
  8030e0:	80801004 	addi	r2,r16,64
  8030e4:	28800226 	beq	r5,r2,8030f0 <_fseeko_r+0x264>
  8030e8:	8809883a 	mov	r4,r17
  8030ec:	0802b5c0 	call	802b5c <_free_r>
  8030f0:	80000c15 	stw	zero,48(r16)
  8030f4:	8080030b 	ldhu	r2,12(r16)
  8030f8:	01800204 	movi	r6,8
  8030fc:	000b883a 	mov	r5,zero
  803100:	10bff7cc 	andi	r2,r2,65503
  803104:	8080030d 	sth	r2,12(r16)
  803108:	81001704 	addi	r4,r16,92
  80310c:	08040e00 	call	8040e0 <memset>
  803110:	0027883a 	mov	r19,zero
  803114:	003f7c06 	br	802f08 <__alt_mem_onchip_mem+0xff782f08>
  803118:	80c00117 	ldw	r3,4(r16)
  80311c:	80800c17 	ldw	r2,48(r16)
  803120:	98e7c83a 	sub	r19,r19,r3
  803124:	10003b26 	beq	r2,zero,803214 <_fseeko_r+0x388>
  803128:	80c00f17 	ldw	r3,60(r16)
  80312c:	80800417 	ldw	r2,16(r16)
  803130:	98e7c83a 	sub	r19,r19,r3
  803134:	003fbc06 	br	803028 <__alt_mem_onchip_mem+0xff783028>
  803138:	8140038f 	ldh	r5,14(r16)
  80313c:	d80d883a 	mov	r6,sp
  803140:	8809883a 	mov	r4,r17
  803144:	08032ec0 	call	8032ec <_fstat_r>
  803148:	103f891e 	bne	r2,zero,802f70 <__alt_mem_onchip_mem+0xff782f70>
  80314c:	dd800417 	ldw	r22,16(sp)
  803150:	adad883a 	add	r22,r21,r22
  803154:	b83fc926 	beq	r23,zero,80307c <__alt_mem_onchip_mem+0xff78307c>
  803158:	81400c17 	ldw	r5,48(r16)
  80315c:	81800117 	ldw	r6,4(r16)
  803160:	28005026 	beq	r5,zero,8032a4 <_fseeko_r+0x418>
  803164:	81c00f17 	ldw	r7,60(r16)
  803168:	003fce06 	br	8030a4 <__alt_mem_onchip_mem+0xff7830a4>
  80316c:	84c01317 	ldw	r19,76(r16)
  803170:	81400717 	ldw	r5,28(r16)
  803174:	000f883a 	mov	r7,zero
  803178:	04e7c83a 	sub	r19,zero,r19
  80317c:	9da6703a 	and	r19,r19,r22
  803180:	980d883a 	mov	r6,r19
  803184:	8809883a 	mov	r4,r17
  803188:	a03ee83a 	callr	r20
  80318c:	00ffffc4 	movi	r3,-1
  803190:	10ff7726 	beq	r2,r3,802f70 <__alt_mem_onchip_mem+0xff782f70>
  803194:	80800417 	ldw	r2,16(r16)
  803198:	81400c17 	ldw	r5,48(r16)
  80319c:	80000115 	stw	zero,4(r16)
  8031a0:	80800015 	stw	r2,0(r16)
  8031a4:	28000526 	beq	r5,zero,8031bc <_fseeko_r+0x330>
  8031a8:	80801004 	addi	r2,r16,64
  8031ac:	28800226 	beq	r5,r2,8031b8 <_fseeko_r+0x32c>
  8031b0:	8809883a 	mov	r4,r17
  8031b4:	0802b5c0 	call	802b5c <_free_r>
  8031b8:	80000c15 	stw	zero,48(r16)
  8031bc:	8080030b 	ldhu	r2,12(r16)
  8031c0:	b4e7c83a 	sub	r19,r22,r19
  8031c4:	10bff7cc 	andi	r2,r2,65503
  8031c8:	8080030d 	sth	r2,12(r16)
  8031cc:	98000b26 	beq	r19,zero,8031fc <_fseeko_r+0x370>
  8031d0:	800b883a 	mov	r5,r16
  8031d4:	8809883a 	mov	r4,r17
  8031d8:	080454c0 	call	80454c <__srefill_r>
  8031dc:	103f641e 	bne	r2,zero,802f70 <__alt_mem_onchip_mem+0xff782f70>
  8031e0:	80800117 	ldw	r2,4(r16)
  8031e4:	14ff6236 	bltu	r2,r19,802f70 <__alt_mem_onchip_mem+0xff782f70>
  8031e8:	80c00017 	ldw	r3,0(r16)
  8031ec:	14c5c83a 	sub	r2,r2,r19
  8031f0:	80800115 	stw	r2,4(r16)
  8031f4:	1ce7883a 	add	r19,r3,r19
  8031f8:	84c00015 	stw	r19,0(r16)
  8031fc:	01800204 	movi	r6,8
  803200:	000b883a 	mov	r5,zero
  803204:	81001704 	addi	r4,r16,92
  803208:	08040e00 	call	8040e0 <memset>
  80320c:	0027883a 	mov	r19,zero
  803210:	003f3d06 	br	802f08 <__alt_mem_onchip_mem+0xff782f08>
  803214:	80800417 	ldw	r2,16(r16)
  803218:	003f8306 	br	803028 <__alt_mem_onchip_mem+0xff783028>
  80321c:	81400717 	ldw	r5,28(r16)
  803220:	900f883a 	mov	r7,r18
  803224:	000d883a 	mov	r6,zero
  803228:	8809883a 	mov	r4,r17
  80322c:	a03ee83a 	callr	r20
  803230:	1027883a 	mov	r19,r2
  803234:	00bfffc4 	movi	r2,-1
  803238:	98bf3226 	beq	r19,r2,802f04 <__alt_mem_onchip_mem+0xff782f04>
  80323c:	8080030b 	ldhu	r2,12(r16)
  803240:	003f7006 	br	803004 <__alt_mem_onchip_mem+0xff783004>
  803244:	8140038f 	ldh	r5,14(r16)
  803248:	283f4716 	blt	r5,zero,802f68 <__alt_mem_onchip_mem+0xff782f68>
  80324c:	d80d883a 	mov	r6,sp
  803250:	8809883a 	mov	r4,r17
  803254:	08032ec0 	call	8032ec <_fstat_r>
  803258:	1000041e 	bne	r2,zero,80326c <_fseeko_r+0x3e0>
  80325c:	d8800117 	ldw	r2,4(sp)
  803260:	00e00014 	movui	r3,32768
  803264:	10bc000c 	andi	r2,r2,61440
  803268:	10ff7c26 	beq	r2,r3,80305c <__alt_mem_onchip_mem+0xff78305c>
  80326c:	8080030b 	ldhu	r2,12(r16)
  803270:	003f3d06 	br	802f68 <__alt_mem_onchip_mem+0xff782f68>
  803274:	800b883a 	mov	r5,r16
  803278:	8809883a 	mov	r4,r17
  80327c:	08035d00 	call	8035d0 <__smakebuf_r>
  803280:	003f3106 	br	802f48 <__alt_mem_onchip_mem+0xff782f48>
  803284:	81400717 	ldw	r5,28(r16)
  803288:	01c00044 	movi	r7,1
  80328c:	000d883a 	mov	r6,zero
  803290:	8809883a 	mov	r4,r17
  803294:	a03ee83a 	callr	r20
  803298:	00ffffc4 	movi	r3,-1
  80329c:	10ff7b1e 	bne	r2,r3,80308c <__alt_mem_onchip_mem+0xff78308c>
  8032a0:	003f3306 	br	802f70 <__alt_mem_onchip_mem+0xff782f70>
  8032a4:	80c00017 	ldw	r3,0(r16)
  8032a8:	80800417 	ldw	r2,16(r16)
  8032ac:	000b883a 	mov	r5,zero
  8032b0:	1887c83a 	sub	r3,r3,r2
  8032b4:	98e7c83a 	sub	r19,r19,r3
  8032b8:	30c7883a 	add	r3,r6,r3
  8032bc:	003f7f06 	br	8030bc <__alt_mem_onchip_mem+0xff7830bc>
  8032c0:	00800744 	movi	r2,29
  8032c4:	88800015 	stw	r2,0(r17)
  8032c8:	04ffffc4 	movi	r19,-1
  8032cc:	003f0e06 	br	802f08 <__alt_mem_onchip_mem+0xff782f08>

008032d0 <fseeko>:
  8032d0:	00802074 	movhi	r2,129
  8032d4:	10955b04 	addi	r2,r2,21868
  8032d8:	300f883a 	mov	r7,r6
  8032dc:	280d883a 	mov	r6,r5
  8032e0:	200b883a 	mov	r5,r4
  8032e4:	11000017 	ldw	r4,0(r2)
  8032e8:	0802e8c1 	jmpi	802e8c <_fseeko_r>

008032ec <_fstat_r>:
  8032ec:	defffd04 	addi	sp,sp,-12
  8032f0:	2805883a 	mov	r2,r5
  8032f4:	dc000015 	stw	r16,0(sp)
  8032f8:	04002074 	movhi	r16,129
  8032fc:	dc400115 	stw	r17,4(sp)
  803300:	841cbc04 	addi	r16,r16,29424
  803304:	2023883a 	mov	r17,r4
  803308:	300b883a 	mov	r5,r6
  80330c:	1009883a 	mov	r4,r2
  803310:	dfc00215 	stw	ra,8(sp)
  803314:	80000015 	stw	zero,0(r16)
  803318:	080f06c0 	call	80f06c <fstat>
  80331c:	00ffffc4 	movi	r3,-1
  803320:	10c00526 	beq	r2,r3,803338 <_fstat_r+0x4c>
  803324:	dfc00217 	ldw	ra,8(sp)
  803328:	dc400117 	ldw	r17,4(sp)
  80332c:	dc000017 	ldw	r16,0(sp)
  803330:	dec00304 	addi	sp,sp,12
  803334:	f800283a 	ret
  803338:	80c00017 	ldw	r3,0(r16)
  80333c:	183ff926 	beq	r3,zero,803324 <__alt_mem_onchip_mem+0xff783324>
  803340:	88c00015 	stw	r3,0(r17)
  803344:	003ff706 	br	803324 <__alt_mem_onchip_mem+0xff783324>

00803348 <_fwalk>:
  803348:	defff704 	addi	sp,sp,-36
  80334c:	dd000415 	stw	r20,16(sp)
  803350:	dfc00815 	stw	ra,32(sp)
  803354:	ddc00715 	stw	r23,28(sp)
  803358:	dd800615 	stw	r22,24(sp)
  80335c:	dd400515 	stw	r21,20(sp)
  803360:	dcc00315 	stw	r19,12(sp)
  803364:	dc800215 	stw	r18,8(sp)
  803368:	dc400115 	stw	r17,4(sp)
  80336c:	dc000015 	stw	r16,0(sp)
  803370:	2500b804 	addi	r20,r4,736
  803374:	a0002326 	beq	r20,zero,803404 <_fwalk+0xbc>
  803378:	282b883a 	mov	r21,r5
  80337c:	002f883a 	mov	r23,zero
  803380:	05800044 	movi	r22,1
  803384:	04ffffc4 	movi	r19,-1
  803388:	a4400117 	ldw	r17,4(r20)
  80338c:	a4800217 	ldw	r18,8(r20)
  803390:	8c7fffc4 	addi	r17,r17,-1
  803394:	88000d16 	blt	r17,zero,8033cc <_fwalk+0x84>
  803398:	94000304 	addi	r16,r18,12
  80339c:	94800384 	addi	r18,r18,14
  8033a0:	8080000b 	ldhu	r2,0(r16)
  8033a4:	8c7fffc4 	addi	r17,r17,-1
  8033a8:	813ffd04 	addi	r4,r16,-12
  8033ac:	b080042e 	bgeu	r22,r2,8033c0 <_fwalk+0x78>
  8033b0:	9080000f 	ldh	r2,0(r18)
  8033b4:	14c00226 	beq	r2,r19,8033c0 <_fwalk+0x78>
  8033b8:	a83ee83a 	callr	r21
  8033bc:	b8aeb03a 	or	r23,r23,r2
  8033c0:	84001a04 	addi	r16,r16,104
  8033c4:	94801a04 	addi	r18,r18,104
  8033c8:	8cfff51e 	bne	r17,r19,8033a0 <__alt_mem_onchip_mem+0xff7833a0>
  8033cc:	a5000017 	ldw	r20,0(r20)
  8033d0:	a03fed1e 	bne	r20,zero,803388 <__alt_mem_onchip_mem+0xff783388>
  8033d4:	b805883a 	mov	r2,r23
  8033d8:	dfc00817 	ldw	ra,32(sp)
  8033dc:	ddc00717 	ldw	r23,28(sp)
  8033e0:	dd800617 	ldw	r22,24(sp)
  8033e4:	dd400517 	ldw	r21,20(sp)
  8033e8:	dd000417 	ldw	r20,16(sp)
  8033ec:	dcc00317 	ldw	r19,12(sp)
  8033f0:	dc800217 	ldw	r18,8(sp)
  8033f4:	dc400117 	ldw	r17,4(sp)
  8033f8:	dc000017 	ldw	r16,0(sp)
  8033fc:	dec00904 	addi	sp,sp,36
  803400:	f800283a 	ret
  803404:	002f883a 	mov	r23,zero
  803408:	003ff206 	br	8033d4 <__alt_mem_onchip_mem+0xff7833d4>

0080340c <_fwalk_reent>:
  80340c:	defff704 	addi	sp,sp,-36
  803410:	dd000415 	stw	r20,16(sp)
  803414:	dfc00815 	stw	ra,32(sp)
  803418:	ddc00715 	stw	r23,28(sp)
  80341c:	dd800615 	stw	r22,24(sp)
  803420:	dd400515 	stw	r21,20(sp)
  803424:	dcc00315 	stw	r19,12(sp)
  803428:	dc800215 	stw	r18,8(sp)
  80342c:	dc400115 	stw	r17,4(sp)
  803430:	dc000015 	stw	r16,0(sp)
  803434:	2500b804 	addi	r20,r4,736
  803438:	a0002326 	beq	r20,zero,8034c8 <_fwalk_reent+0xbc>
  80343c:	282b883a 	mov	r21,r5
  803440:	2027883a 	mov	r19,r4
  803444:	002f883a 	mov	r23,zero
  803448:	05800044 	movi	r22,1
  80344c:	04bfffc4 	movi	r18,-1
  803450:	a4400117 	ldw	r17,4(r20)
  803454:	a4000217 	ldw	r16,8(r20)
  803458:	8c7fffc4 	addi	r17,r17,-1
  80345c:	88000c16 	blt	r17,zero,803490 <_fwalk_reent+0x84>
  803460:	84000304 	addi	r16,r16,12
  803464:	8080000b 	ldhu	r2,0(r16)
  803468:	8c7fffc4 	addi	r17,r17,-1
  80346c:	817ffd04 	addi	r5,r16,-12
  803470:	b080052e 	bgeu	r22,r2,803488 <_fwalk_reent+0x7c>
  803474:	8080008f 	ldh	r2,2(r16)
  803478:	9809883a 	mov	r4,r19
  80347c:	14800226 	beq	r2,r18,803488 <_fwalk_reent+0x7c>
  803480:	a83ee83a 	callr	r21
  803484:	b8aeb03a 	or	r23,r23,r2
  803488:	84001a04 	addi	r16,r16,104
  80348c:	8cbff51e 	bne	r17,r18,803464 <__alt_mem_onchip_mem+0xff783464>
  803490:	a5000017 	ldw	r20,0(r20)
  803494:	a03fee1e 	bne	r20,zero,803450 <__alt_mem_onchip_mem+0xff783450>
  803498:	b805883a 	mov	r2,r23
  80349c:	dfc00817 	ldw	ra,32(sp)
  8034a0:	ddc00717 	ldw	r23,28(sp)
  8034a4:	dd800617 	ldw	r22,24(sp)
  8034a8:	dd400517 	ldw	r21,20(sp)
  8034ac:	dd000417 	ldw	r20,16(sp)
  8034b0:	dcc00317 	ldw	r19,12(sp)
  8034b4:	dc800217 	ldw	r18,8(sp)
  8034b8:	dc400117 	ldw	r17,4(sp)
  8034bc:	dc000017 	ldw	r16,0(sp)
  8034c0:	dec00904 	addi	sp,sp,36
  8034c4:	f800283a 	ret
  8034c8:	002f883a 	mov	r23,zero
  8034cc:	003ff206 	br	803498 <__alt_mem_onchip_mem+0xff783498>

008034d0 <_fwrite_r>:
  8034d0:	defff504 	addi	sp,sp,-44
  8034d4:	dc800815 	stw	r18,32(sp)
  8034d8:	39a5383a 	mul	r18,r7,r6
  8034dc:	d8800304 	addi	r2,sp,12
  8034e0:	d8800015 	stw	r2,0(sp)
  8034e4:	00800044 	movi	r2,1
  8034e8:	dcc00915 	stw	r19,36(sp)
  8034ec:	dc400715 	stw	r17,28(sp)
  8034f0:	dc000615 	stw	r16,24(sp)
  8034f4:	d9400315 	stw	r5,12(sp)
  8034f8:	dfc00a15 	stw	ra,40(sp)
  8034fc:	dc800415 	stw	r18,16(sp)
  803500:	dc800215 	stw	r18,8(sp)
  803504:	d8800115 	stw	r2,4(sp)
  803508:	3027883a 	mov	r19,r6
  80350c:	3821883a 	mov	r16,r7
  803510:	2023883a 	mov	r17,r4
  803514:	d9400b17 	ldw	r5,44(sp)
  803518:	20000226 	beq	r4,zero,803524 <_fwrite_r+0x54>
  80351c:	20800e17 	ldw	r2,56(r4)
  803520:	10001a26 	beq	r2,zero,80358c <_fwrite_r+0xbc>
  803524:	2880030b 	ldhu	r2,12(r5)
  803528:	10c8000c 	andi	r3,r2,8192
  80352c:	1800061e 	bne	r3,zero,803548 <_fwrite_r+0x78>
  803530:	29001917 	ldw	r4,100(r5)
  803534:	00f7ffc4 	movi	r3,-8193
  803538:	10880014 	ori	r2,r2,8192
  80353c:	20c6703a 	and	r3,r4,r3
  803540:	2880030d 	sth	r2,12(r5)
  803544:	28c01915 	stw	r3,100(r5)
  803548:	d80d883a 	mov	r6,sp
  80354c:	8809883a 	mov	r4,r17
  803550:	0808c440 	call	808c44 <__sfvwrite_r>
  803554:	10000b26 	beq	r2,zero,803584 <_fwrite_r+0xb4>
  803558:	d9000217 	ldw	r4,8(sp)
  80355c:	980b883a 	mov	r5,r19
  803560:	9109c83a 	sub	r4,r18,r4
  803564:	0801f280 	call	801f28 <__udivsi3>
  803568:	dfc00a17 	ldw	ra,40(sp)
  80356c:	dcc00917 	ldw	r19,36(sp)
  803570:	dc800817 	ldw	r18,32(sp)
  803574:	dc400717 	ldw	r17,28(sp)
  803578:	dc000617 	ldw	r16,24(sp)
  80357c:	dec00b04 	addi	sp,sp,44
  803580:	f800283a 	ret
  803584:	8005883a 	mov	r2,r16
  803588:	003ff706 	br	803568 <__alt_mem_onchip_mem+0xff783568>
  80358c:	d9400515 	stw	r5,20(sp)
  803590:	08027f00 	call	8027f0 <__sinit>
  803594:	d9400517 	ldw	r5,20(sp)
  803598:	003fe206 	br	803524 <__alt_mem_onchip_mem+0xff783524>

0080359c <fwrite>:
  80359c:	defffe04 	addi	sp,sp,-8
  8035a0:	00802074 	movhi	r2,129
  8035a4:	d9c00015 	stw	r7,0(sp)
  8035a8:	10955b04 	addi	r2,r2,21868
  8035ac:	300f883a 	mov	r7,r6
  8035b0:	280d883a 	mov	r6,r5
  8035b4:	200b883a 	mov	r5,r4
  8035b8:	11000017 	ldw	r4,0(r2)
  8035bc:	dfc00115 	stw	ra,4(sp)
  8035c0:	08034d00 	call	8034d0 <_fwrite_r>
  8035c4:	dfc00117 	ldw	ra,4(sp)
  8035c8:	dec00204 	addi	sp,sp,8
  8035cc:	f800283a 	ret

008035d0 <__smakebuf_r>:
  8035d0:	2880030b 	ldhu	r2,12(r5)
  8035d4:	10c0008c 	andi	r3,r2,2
  8035d8:	1800411e 	bne	r3,zero,8036e0 <__smakebuf_r+0x110>
  8035dc:	deffec04 	addi	sp,sp,-80
  8035e0:	dc000f15 	stw	r16,60(sp)
  8035e4:	2821883a 	mov	r16,r5
  8035e8:	2940038f 	ldh	r5,14(r5)
  8035ec:	dc401015 	stw	r17,64(sp)
  8035f0:	dfc01315 	stw	ra,76(sp)
  8035f4:	dcc01215 	stw	r19,72(sp)
  8035f8:	dc801115 	stw	r18,68(sp)
  8035fc:	2023883a 	mov	r17,r4
  803600:	28001c16 	blt	r5,zero,803674 <__smakebuf_r+0xa4>
  803604:	d80d883a 	mov	r6,sp
  803608:	08032ec0 	call	8032ec <_fstat_r>
  80360c:	10001816 	blt	r2,zero,803670 <__smakebuf_r+0xa0>
  803610:	d8800117 	ldw	r2,4(sp)
  803614:	00e00014 	movui	r3,32768
  803618:	10bc000c 	andi	r2,r2,61440
  80361c:	14c80020 	cmpeqi	r19,r2,8192
  803620:	10c03726 	beq	r2,r3,803700 <__smakebuf_r+0x130>
  803624:	80c0030b 	ldhu	r3,12(r16)
  803628:	18c20014 	ori	r3,r3,2048
  80362c:	80c0030d 	sth	r3,12(r16)
  803630:	00c80004 	movi	r3,8192
  803634:	10c0521e 	bne	r2,r3,803780 <__smakebuf_r+0x1b0>
  803638:	8140038f 	ldh	r5,14(r16)
  80363c:	8809883a 	mov	r4,r17
  803640:	08091000 	call	809100 <_isatty_r>
  803644:	10004c26 	beq	r2,zero,803778 <__smakebuf_r+0x1a8>
  803648:	8080030b 	ldhu	r2,12(r16)
  80364c:	80c010c4 	addi	r3,r16,67
  803650:	80c00015 	stw	r3,0(r16)
  803654:	10800054 	ori	r2,r2,1
  803658:	8080030d 	sth	r2,12(r16)
  80365c:	00800044 	movi	r2,1
  803660:	80c00415 	stw	r3,16(r16)
  803664:	80800515 	stw	r2,20(r16)
  803668:	04810004 	movi	r18,1024
  80366c:	00000706 	br	80368c <__smakebuf_r+0xbc>
  803670:	8080030b 	ldhu	r2,12(r16)
  803674:	10c0200c 	andi	r3,r2,128
  803678:	18001f1e 	bne	r3,zero,8036f8 <__smakebuf_r+0x128>
  80367c:	04810004 	movi	r18,1024
  803680:	10820014 	ori	r2,r2,2048
  803684:	8080030d 	sth	r2,12(r16)
  803688:	0027883a 	mov	r19,zero
  80368c:	900b883a 	mov	r5,r18
  803690:	8809883a 	mov	r4,r17
  803694:	080378c0 	call	80378c <_malloc_r>
  803698:	10002c26 	beq	r2,zero,80374c <__smakebuf_r+0x17c>
  80369c:	80c0030b 	ldhu	r3,12(r16)
  8036a0:	01002034 	movhi	r4,128
  8036a4:	21092a04 	addi	r4,r4,9384
  8036a8:	89000f15 	stw	r4,60(r17)
  8036ac:	18c02014 	ori	r3,r3,128
  8036b0:	80c0030d 	sth	r3,12(r16)
  8036b4:	80800015 	stw	r2,0(r16)
  8036b8:	80800415 	stw	r2,16(r16)
  8036bc:	84800515 	stw	r18,20(r16)
  8036c0:	98001a1e 	bne	r19,zero,80372c <__smakebuf_r+0x15c>
  8036c4:	dfc01317 	ldw	ra,76(sp)
  8036c8:	dcc01217 	ldw	r19,72(sp)
  8036cc:	dc801117 	ldw	r18,68(sp)
  8036d0:	dc401017 	ldw	r17,64(sp)
  8036d4:	dc000f17 	ldw	r16,60(sp)
  8036d8:	dec01404 	addi	sp,sp,80
  8036dc:	f800283a 	ret
  8036e0:	288010c4 	addi	r2,r5,67
  8036e4:	28800015 	stw	r2,0(r5)
  8036e8:	28800415 	stw	r2,16(r5)
  8036ec:	00800044 	movi	r2,1
  8036f0:	28800515 	stw	r2,20(r5)
  8036f4:	f800283a 	ret
  8036f8:	04801004 	movi	r18,64
  8036fc:	003fe006 	br	803680 <__alt_mem_onchip_mem+0xff783680>
  803700:	81000a17 	ldw	r4,40(r16)
  803704:	00c02034 	movhi	r3,128
  803708:	18d23504 	addi	r3,r3,18644
  80370c:	20ffc51e 	bne	r4,r3,803624 <__alt_mem_onchip_mem+0xff783624>
  803710:	8080030b 	ldhu	r2,12(r16)
  803714:	04810004 	movi	r18,1024
  803718:	84801315 	stw	r18,76(r16)
  80371c:	1484b03a 	or	r2,r2,r18
  803720:	8080030d 	sth	r2,12(r16)
  803724:	0027883a 	mov	r19,zero
  803728:	003fd806 	br	80368c <__alt_mem_onchip_mem+0xff78368c>
  80372c:	8140038f 	ldh	r5,14(r16)
  803730:	8809883a 	mov	r4,r17
  803734:	08091000 	call	809100 <_isatty_r>
  803738:	103fe226 	beq	r2,zero,8036c4 <__alt_mem_onchip_mem+0xff7836c4>
  80373c:	8080030b 	ldhu	r2,12(r16)
  803740:	10800054 	ori	r2,r2,1
  803744:	8080030d 	sth	r2,12(r16)
  803748:	003fde06 	br	8036c4 <__alt_mem_onchip_mem+0xff7836c4>
  80374c:	8080030b 	ldhu	r2,12(r16)
  803750:	10c0800c 	andi	r3,r2,512
  803754:	183fdb1e 	bne	r3,zero,8036c4 <__alt_mem_onchip_mem+0xff7836c4>
  803758:	10800094 	ori	r2,r2,2
  80375c:	80c010c4 	addi	r3,r16,67
  803760:	8080030d 	sth	r2,12(r16)
  803764:	00800044 	movi	r2,1
  803768:	80c00015 	stw	r3,0(r16)
  80376c:	80c00415 	stw	r3,16(r16)
  803770:	80800515 	stw	r2,20(r16)
  803774:	003fd306 	br	8036c4 <__alt_mem_onchip_mem+0xff7836c4>
  803778:	04810004 	movi	r18,1024
  80377c:	003fc306 	br	80368c <__alt_mem_onchip_mem+0xff78368c>
  803780:	0027883a 	mov	r19,zero
  803784:	04810004 	movi	r18,1024
  803788:	003fc006 	br	80368c <__alt_mem_onchip_mem+0xff78368c>

0080378c <_malloc_r>:
  80378c:	defff504 	addi	sp,sp,-44
  803790:	dc800315 	stw	r18,12(sp)
  803794:	dfc00a15 	stw	ra,40(sp)
  803798:	df000915 	stw	fp,36(sp)
  80379c:	ddc00815 	stw	r23,32(sp)
  8037a0:	dd800715 	stw	r22,28(sp)
  8037a4:	dd400615 	stw	r21,24(sp)
  8037a8:	dd000515 	stw	r20,20(sp)
  8037ac:	dcc00415 	stw	r19,16(sp)
  8037b0:	dc400215 	stw	r17,8(sp)
  8037b4:	dc000115 	stw	r16,4(sp)
  8037b8:	288002c4 	addi	r2,r5,11
  8037bc:	00c00584 	movi	r3,22
  8037c0:	2025883a 	mov	r18,r4
  8037c4:	18807f2e 	bgeu	r3,r2,8039c4 <_malloc_r+0x238>
  8037c8:	047ffe04 	movi	r17,-8
  8037cc:	1462703a 	and	r17,r2,r17
  8037d0:	8800a316 	blt	r17,zero,803a60 <_malloc_r+0x2d4>
  8037d4:	8940a236 	bltu	r17,r5,803a60 <_malloc_r+0x2d4>
  8037d8:	080f5f40 	call	80f5f4 <__malloc_lock>
  8037dc:	00807dc4 	movi	r2,503
  8037e0:	1441e92e 	bgeu	r2,r17,803f88 <_malloc_r+0x7fc>
  8037e4:	8804d27a 	srli	r2,r17,9
  8037e8:	1000a126 	beq	r2,zero,803a70 <_malloc_r+0x2e4>
  8037ec:	00c00104 	movi	r3,4
  8037f0:	18811e36 	bltu	r3,r2,803c6c <_malloc_r+0x4e0>
  8037f4:	8804d1ba 	srli	r2,r17,6
  8037f8:	12000e44 	addi	r8,r2,57
  8037fc:	11c00e04 	addi	r7,r2,56
  803800:	4209883a 	add	r4,r8,r8
  803804:	04c02074 	movhi	r19,129
  803808:	2109883a 	add	r4,r4,r4
  80380c:	9ccf3704 	addi	r19,r19,15580
  803810:	2109883a 	add	r4,r4,r4
  803814:	9909883a 	add	r4,r19,r4
  803818:	24000117 	ldw	r16,4(r4)
  80381c:	213ffe04 	addi	r4,r4,-8
  803820:	24009726 	beq	r4,r16,803a80 <_malloc_r+0x2f4>
  803824:	80800117 	ldw	r2,4(r16)
  803828:	01bfff04 	movi	r6,-4
  80382c:	014003c4 	movi	r5,15
  803830:	1184703a 	and	r2,r2,r6
  803834:	1447c83a 	sub	r3,r2,r17
  803838:	28c00716 	blt	r5,r3,803858 <_malloc_r+0xcc>
  80383c:	1800920e 	bge	r3,zero,803a88 <_malloc_r+0x2fc>
  803840:	84000317 	ldw	r16,12(r16)
  803844:	24008e26 	beq	r4,r16,803a80 <_malloc_r+0x2f4>
  803848:	80800117 	ldw	r2,4(r16)
  80384c:	1184703a 	and	r2,r2,r6
  803850:	1447c83a 	sub	r3,r2,r17
  803854:	28fff90e 	bge	r5,r3,80383c <__alt_mem_onchip_mem+0xff78383c>
  803858:	3809883a 	mov	r4,r7
  80385c:	01802074 	movhi	r6,129
  803860:	9c000417 	ldw	r16,16(r19)
  803864:	318f3704 	addi	r6,r6,15580
  803868:	32000204 	addi	r8,r6,8
  80386c:	82013426 	beq	r16,r8,803d40 <_malloc_r+0x5b4>
  803870:	80c00117 	ldw	r3,4(r16)
  803874:	00bfff04 	movi	r2,-4
  803878:	188e703a 	and	r7,r3,r2
  80387c:	3c45c83a 	sub	r2,r7,r17
  803880:	00c003c4 	movi	r3,15
  803884:	18811f16 	blt	r3,r2,803d04 <_malloc_r+0x578>
  803888:	32000515 	stw	r8,20(r6)
  80388c:	32000415 	stw	r8,16(r6)
  803890:	10007f0e 	bge	r2,zero,803a90 <_malloc_r+0x304>
  803894:	00807fc4 	movi	r2,511
  803898:	11c0fd36 	bltu	r2,r7,803c90 <_malloc_r+0x504>
  80389c:	3806d0fa 	srli	r3,r7,3
  8038a0:	01c00044 	movi	r7,1
  8038a4:	30800117 	ldw	r2,4(r6)
  8038a8:	19400044 	addi	r5,r3,1
  8038ac:	294b883a 	add	r5,r5,r5
  8038b0:	1807d0ba 	srai	r3,r3,2
  8038b4:	294b883a 	add	r5,r5,r5
  8038b8:	294b883a 	add	r5,r5,r5
  8038bc:	298b883a 	add	r5,r5,r6
  8038c0:	38c6983a 	sll	r3,r7,r3
  8038c4:	29c00017 	ldw	r7,0(r5)
  8038c8:	2a7ffe04 	addi	r9,r5,-8
  8038cc:	1886b03a 	or	r3,r3,r2
  8038d0:	82400315 	stw	r9,12(r16)
  8038d4:	81c00215 	stw	r7,8(r16)
  8038d8:	30c00115 	stw	r3,4(r6)
  8038dc:	2c000015 	stw	r16,0(r5)
  8038e0:	3c000315 	stw	r16,12(r7)
  8038e4:	2005d0ba 	srai	r2,r4,2
  8038e8:	01400044 	movi	r5,1
  8038ec:	288a983a 	sll	r5,r5,r2
  8038f0:	19406f36 	bltu	r3,r5,803ab0 <_malloc_r+0x324>
  8038f4:	28c4703a 	and	r2,r5,r3
  8038f8:	10000a1e 	bne	r2,zero,803924 <_malloc_r+0x198>
  8038fc:	00bfff04 	movi	r2,-4
  803900:	294b883a 	add	r5,r5,r5
  803904:	2088703a 	and	r4,r4,r2
  803908:	28c4703a 	and	r2,r5,r3
  80390c:	21000104 	addi	r4,r4,4
  803910:	1000041e 	bne	r2,zero,803924 <_malloc_r+0x198>
  803914:	294b883a 	add	r5,r5,r5
  803918:	28c4703a 	and	r2,r5,r3
  80391c:	21000104 	addi	r4,r4,4
  803920:	103ffc26 	beq	r2,zero,803914 <__alt_mem_onchip_mem+0xff783914>
  803924:	02bfff04 	movi	r10,-4
  803928:	024003c4 	movi	r9,15
  80392c:	21800044 	addi	r6,r4,1
  803930:	318d883a 	add	r6,r6,r6
  803934:	318d883a 	add	r6,r6,r6
  803938:	318d883a 	add	r6,r6,r6
  80393c:	998d883a 	add	r6,r19,r6
  803940:	333ffe04 	addi	r12,r6,-8
  803944:	2017883a 	mov	r11,r4
  803948:	31800104 	addi	r6,r6,4
  80394c:	34000017 	ldw	r16,0(r6)
  803950:	31fffd04 	addi	r7,r6,-12
  803954:	81c0041e 	bne	r16,r7,803968 <_malloc_r+0x1dc>
  803958:	0000fb06 	br	803d48 <_malloc_r+0x5bc>
  80395c:	1801030e 	bge	r3,zero,803d6c <_malloc_r+0x5e0>
  803960:	84000317 	ldw	r16,12(r16)
  803964:	81c0f826 	beq	r16,r7,803d48 <_malloc_r+0x5bc>
  803968:	80800117 	ldw	r2,4(r16)
  80396c:	1284703a 	and	r2,r2,r10
  803970:	1447c83a 	sub	r3,r2,r17
  803974:	48fff90e 	bge	r9,r3,80395c <__alt_mem_onchip_mem+0xff78395c>
  803978:	80800317 	ldw	r2,12(r16)
  80397c:	81000217 	ldw	r4,8(r16)
  803980:	89400054 	ori	r5,r17,1
  803984:	81400115 	stw	r5,4(r16)
  803988:	20800315 	stw	r2,12(r4)
  80398c:	11000215 	stw	r4,8(r2)
  803990:	8463883a 	add	r17,r16,r17
  803994:	9c400515 	stw	r17,20(r19)
  803998:	9c400415 	stw	r17,16(r19)
  80399c:	18800054 	ori	r2,r3,1
  8039a0:	88800115 	stw	r2,4(r17)
  8039a4:	8a000315 	stw	r8,12(r17)
  8039a8:	8a000215 	stw	r8,8(r17)
  8039ac:	88e3883a 	add	r17,r17,r3
  8039b0:	88c00015 	stw	r3,0(r17)
  8039b4:	9009883a 	mov	r4,r18
  8039b8:	080f6180 	call	80f618 <__malloc_unlock>
  8039bc:	80800204 	addi	r2,r16,8
  8039c0:	00001b06 	br	803a30 <_malloc_r+0x2a4>
  8039c4:	04400404 	movi	r17,16
  8039c8:	89402536 	bltu	r17,r5,803a60 <_malloc_r+0x2d4>
  8039cc:	080f5f40 	call	80f5f4 <__malloc_lock>
  8039d0:	00800184 	movi	r2,6
  8039d4:	01000084 	movi	r4,2
  8039d8:	04c02074 	movhi	r19,129
  8039dc:	1085883a 	add	r2,r2,r2
  8039e0:	9ccf3704 	addi	r19,r19,15580
  8039e4:	1085883a 	add	r2,r2,r2
  8039e8:	9885883a 	add	r2,r19,r2
  8039ec:	14000117 	ldw	r16,4(r2)
  8039f0:	10fffe04 	addi	r3,r2,-8
  8039f4:	80c0d926 	beq	r16,r3,803d5c <_malloc_r+0x5d0>
  8039f8:	80c00117 	ldw	r3,4(r16)
  8039fc:	81000317 	ldw	r4,12(r16)
  803a00:	00bfff04 	movi	r2,-4
  803a04:	1884703a 	and	r2,r3,r2
  803a08:	81400217 	ldw	r5,8(r16)
  803a0c:	8085883a 	add	r2,r16,r2
  803a10:	10c00117 	ldw	r3,4(r2)
  803a14:	29000315 	stw	r4,12(r5)
  803a18:	21400215 	stw	r5,8(r4)
  803a1c:	18c00054 	ori	r3,r3,1
  803a20:	10c00115 	stw	r3,4(r2)
  803a24:	9009883a 	mov	r4,r18
  803a28:	080f6180 	call	80f618 <__malloc_unlock>
  803a2c:	80800204 	addi	r2,r16,8
  803a30:	dfc00a17 	ldw	ra,40(sp)
  803a34:	df000917 	ldw	fp,36(sp)
  803a38:	ddc00817 	ldw	r23,32(sp)
  803a3c:	dd800717 	ldw	r22,28(sp)
  803a40:	dd400617 	ldw	r21,24(sp)
  803a44:	dd000517 	ldw	r20,20(sp)
  803a48:	dcc00417 	ldw	r19,16(sp)
  803a4c:	dc800317 	ldw	r18,12(sp)
  803a50:	dc400217 	ldw	r17,8(sp)
  803a54:	dc000117 	ldw	r16,4(sp)
  803a58:	dec00b04 	addi	sp,sp,44
  803a5c:	f800283a 	ret
  803a60:	00800304 	movi	r2,12
  803a64:	90800015 	stw	r2,0(r18)
  803a68:	0005883a 	mov	r2,zero
  803a6c:	003ff006 	br	803a30 <__alt_mem_onchip_mem+0xff783a30>
  803a70:	01002004 	movi	r4,128
  803a74:	02001004 	movi	r8,64
  803a78:	01c00fc4 	movi	r7,63
  803a7c:	003f6106 	br	803804 <__alt_mem_onchip_mem+0xff783804>
  803a80:	4009883a 	mov	r4,r8
  803a84:	003f7506 	br	80385c <__alt_mem_onchip_mem+0xff78385c>
  803a88:	81000317 	ldw	r4,12(r16)
  803a8c:	003fde06 	br	803a08 <__alt_mem_onchip_mem+0xff783a08>
  803a90:	81c5883a 	add	r2,r16,r7
  803a94:	11400117 	ldw	r5,4(r2)
  803a98:	9009883a 	mov	r4,r18
  803a9c:	29400054 	ori	r5,r5,1
  803aa0:	11400115 	stw	r5,4(r2)
  803aa4:	080f6180 	call	80f618 <__malloc_unlock>
  803aa8:	80800204 	addi	r2,r16,8
  803aac:	003fe006 	br	803a30 <__alt_mem_onchip_mem+0xff783a30>
  803ab0:	9c000217 	ldw	r16,8(r19)
  803ab4:	00bfff04 	movi	r2,-4
  803ab8:	85800117 	ldw	r22,4(r16)
  803abc:	b0ac703a 	and	r22,r22,r2
  803ac0:	b4400336 	bltu	r22,r17,803ad0 <_malloc_r+0x344>
  803ac4:	b445c83a 	sub	r2,r22,r17
  803ac8:	00c003c4 	movi	r3,15
  803acc:	18805d16 	blt	r3,r2,803c44 <_malloc_r+0x4b8>
  803ad0:	05c02074 	movhi	r23,129
  803ad4:	00802074 	movhi	r2,129
  803ad8:	109cbf04 	addi	r2,r2,29436
  803adc:	bdd55c04 	addi	r23,r23,21872
  803ae0:	15400017 	ldw	r21,0(r2)
  803ae4:	b8c00017 	ldw	r3,0(r23)
  803ae8:	00bfffc4 	movi	r2,-1
  803aec:	858d883a 	add	r6,r16,r22
  803af0:	8d6b883a 	add	r21,r17,r21
  803af4:	1880ea26 	beq	r3,r2,803ea0 <_malloc_r+0x714>
  803af8:	ad4403c4 	addi	r21,r21,4111
  803afc:	00bc0004 	movi	r2,-4096
  803b00:	a8aa703a 	and	r21,r21,r2
  803b04:	a80b883a 	mov	r5,r21
  803b08:	9009883a 	mov	r4,r18
  803b0c:	d9800015 	stw	r6,0(sp)
  803b10:	08047a80 	call	8047a8 <_sbrk_r>
  803b14:	1029883a 	mov	r20,r2
  803b18:	00bfffc4 	movi	r2,-1
  803b1c:	d9800017 	ldw	r6,0(sp)
  803b20:	a080e826 	beq	r20,r2,803ec4 <_malloc_r+0x738>
  803b24:	a180a636 	bltu	r20,r6,803dc0 <_malloc_r+0x634>
  803b28:	07002074 	movhi	fp,129
  803b2c:	e71cca04 	addi	fp,fp,29480
  803b30:	e0800017 	ldw	r2,0(fp)
  803b34:	a887883a 	add	r3,r21,r2
  803b38:	e0c00015 	stw	r3,0(fp)
  803b3c:	3500e626 	beq	r6,r20,803ed8 <_malloc_r+0x74c>
  803b40:	b9000017 	ldw	r4,0(r23)
  803b44:	00bfffc4 	movi	r2,-1
  803b48:	2080ee26 	beq	r4,r2,803f04 <_malloc_r+0x778>
  803b4c:	a185c83a 	sub	r2,r20,r6
  803b50:	10c5883a 	add	r2,r2,r3
  803b54:	e0800015 	stw	r2,0(fp)
  803b58:	a0c001cc 	andi	r3,r20,7
  803b5c:	1800bc26 	beq	r3,zero,803e50 <_malloc_r+0x6c4>
  803b60:	a0e9c83a 	sub	r20,r20,r3
  803b64:	00840204 	movi	r2,4104
  803b68:	a5000204 	addi	r20,r20,8
  803b6c:	10c7c83a 	sub	r3,r2,r3
  803b70:	a545883a 	add	r2,r20,r21
  803b74:	1083ffcc 	andi	r2,r2,4095
  803b78:	18abc83a 	sub	r21,r3,r2
  803b7c:	a80b883a 	mov	r5,r21
  803b80:	9009883a 	mov	r4,r18
  803b84:	08047a80 	call	8047a8 <_sbrk_r>
  803b88:	00ffffc4 	movi	r3,-1
  803b8c:	10c0e126 	beq	r2,r3,803f14 <_malloc_r+0x788>
  803b90:	1505c83a 	sub	r2,r2,r20
  803b94:	1545883a 	add	r2,r2,r21
  803b98:	10800054 	ori	r2,r2,1
  803b9c:	e0c00017 	ldw	r3,0(fp)
  803ba0:	9d000215 	stw	r20,8(r19)
  803ba4:	a0800115 	stw	r2,4(r20)
  803ba8:	a8c7883a 	add	r3,r21,r3
  803bac:	e0c00015 	stw	r3,0(fp)
  803bb0:	84c00e26 	beq	r16,r19,803bec <_malloc_r+0x460>
  803bb4:	018003c4 	movi	r6,15
  803bb8:	3580a72e 	bgeu	r6,r22,803e58 <_malloc_r+0x6cc>
  803bbc:	81400117 	ldw	r5,4(r16)
  803bc0:	013ffe04 	movi	r4,-8
  803bc4:	b0bffd04 	addi	r2,r22,-12
  803bc8:	1104703a 	and	r2,r2,r4
  803bcc:	2900004c 	andi	r4,r5,1
  803bd0:	2088b03a 	or	r4,r4,r2
  803bd4:	81000115 	stw	r4,4(r16)
  803bd8:	01400144 	movi	r5,5
  803bdc:	8089883a 	add	r4,r16,r2
  803be0:	21400115 	stw	r5,4(r4)
  803be4:	21400215 	stw	r5,8(r4)
  803be8:	3080cd36 	bltu	r6,r2,803f20 <_malloc_r+0x794>
  803bec:	00802074 	movhi	r2,129
  803bf0:	109cbe04 	addi	r2,r2,29432
  803bf4:	11000017 	ldw	r4,0(r2)
  803bf8:	20c0012e 	bgeu	r4,r3,803c00 <_malloc_r+0x474>
  803bfc:	10c00015 	stw	r3,0(r2)
  803c00:	00802074 	movhi	r2,129
  803c04:	109cbd04 	addi	r2,r2,29428
  803c08:	11000017 	ldw	r4,0(r2)
  803c0c:	9c000217 	ldw	r16,8(r19)
  803c10:	20c0012e 	bgeu	r4,r3,803c18 <_malloc_r+0x48c>
  803c14:	10c00015 	stw	r3,0(r2)
  803c18:	80c00117 	ldw	r3,4(r16)
  803c1c:	00bfff04 	movi	r2,-4
  803c20:	1886703a 	and	r3,r3,r2
  803c24:	1c45c83a 	sub	r2,r3,r17
  803c28:	1c400236 	bltu	r3,r17,803c34 <_malloc_r+0x4a8>
  803c2c:	00c003c4 	movi	r3,15
  803c30:	18800416 	blt	r3,r2,803c44 <_malloc_r+0x4b8>
  803c34:	9009883a 	mov	r4,r18
  803c38:	080f6180 	call	80f618 <__malloc_unlock>
  803c3c:	0005883a 	mov	r2,zero
  803c40:	003f7b06 	br	803a30 <__alt_mem_onchip_mem+0xff783a30>
  803c44:	88c00054 	ori	r3,r17,1
  803c48:	80c00115 	stw	r3,4(r16)
  803c4c:	8463883a 	add	r17,r16,r17
  803c50:	10800054 	ori	r2,r2,1
  803c54:	9c400215 	stw	r17,8(r19)
  803c58:	88800115 	stw	r2,4(r17)
  803c5c:	9009883a 	mov	r4,r18
  803c60:	080f6180 	call	80f618 <__malloc_unlock>
  803c64:	80800204 	addi	r2,r16,8
  803c68:	003f7106 	br	803a30 <__alt_mem_onchip_mem+0xff783a30>
  803c6c:	00c00504 	movi	r3,20
  803c70:	18804a2e 	bgeu	r3,r2,803d9c <_malloc_r+0x610>
  803c74:	00c01504 	movi	r3,84
  803c78:	18806e36 	bltu	r3,r2,803e34 <_malloc_r+0x6a8>
  803c7c:	8804d33a 	srli	r2,r17,12
  803c80:	12001bc4 	addi	r8,r2,111
  803c84:	11c01b84 	addi	r7,r2,110
  803c88:	4209883a 	add	r4,r8,r8
  803c8c:	003edd06 	br	803804 <__alt_mem_onchip_mem+0xff783804>
  803c90:	3804d27a 	srli	r2,r7,9
  803c94:	00c00104 	movi	r3,4
  803c98:	1880442e 	bgeu	r3,r2,803dac <_malloc_r+0x620>
  803c9c:	00c00504 	movi	r3,20
  803ca0:	18808136 	bltu	r3,r2,803ea8 <_malloc_r+0x71c>
  803ca4:	11401704 	addi	r5,r2,92
  803ca8:	10c016c4 	addi	r3,r2,91
  803cac:	294b883a 	add	r5,r5,r5
  803cb0:	294b883a 	add	r5,r5,r5
  803cb4:	294b883a 	add	r5,r5,r5
  803cb8:	994b883a 	add	r5,r19,r5
  803cbc:	28800017 	ldw	r2,0(r5)
  803cc0:	01802074 	movhi	r6,129
  803cc4:	297ffe04 	addi	r5,r5,-8
  803cc8:	318f3704 	addi	r6,r6,15580
  803ccc:	28806526 	beq	r5,r2,803e64 <_malloc_r+0x6d8>
  803cd0:	01bfff04 	movi	r6,-4
  803cd4:	10c00117 	ldw	r3,4(r2)
  803cd8:	1986703a 	and	r3,r3,r6
  803cdc:	38c0022e 	bgeu	r7,r3,803ce8 <_malloc_r+0x55c>
  803ce0:	10800217 	ldw	r2,8(r2)
  803ce4:	28bffb1e 	bne	r5,r2,803cd4 <__alt_mem_onchip_mem+0xff783cd4>
  803ce8:	11400317 	ldw	r5,12(r2)
  803cec:	98c00117 	ldw	r3,4(r19)
  803cf0:	81400315 	stw	r5,12(r16)
  803cf4:	80800215 	stw	r2,8(r16)
  803cf8:	2c000215 	stw	r16,8(r5)
  803cfc:	14000315 	stw	r16,12(r2)
  803d00:	003ef806 	br	8038e4 <__alt_mem_onchip_mem+0xff7838e4>
  803d04:	88c00054 	ori	r3,r17,1
  803d08:	80c00115 	stw	r3,4(r16)
  803d0c:	8463883a 	add	r17,r16,r17
  803d10:	34400515 	stw	r17,20(r6)
  803d14:	34400415 	stw	r17,16(r6)
  803d18:	10c00054 	ori	r3,r2,1
  803d1c:	8a000315 	stw	r8,12(r17)
  803d20:	8a000215 	stw	r8,8(r17)
  803d24:	88c00115 	stw	r3,4(r17)
  803d28:	88a3883a 	add	r17,r17,r2
  803d2c:	88800015 	stw	r2,0(r17)
  803d30:	9009883a 	mov	r4,r18
  803d34:	080f6180 	call	80f618 <__malloc_unlock>
  803d38:	80800204 	addi	r2,r16,8
  803d3c:	003f3c06 	br	803a30 <__alt_mem_onchip_mem+0xff783a30>
  803d40:	30c00117 	ldw	r3,4(r6)
  803d44:	003ee706 	br	8038e4 <__alt_mem_onchip_mem+0xff7838e4>
  803d48:	5ac00044 	addi	r11,r11,1
  803d4c:	588000cc 	andi	r2,r11,3
  803d50:	31800204 	addi	r6,r6,8
  803d54:	103efd1e 	bne	r2,zero,80394c <__alt_mem_onchip_mem+0xff78394c>
  803d58:	00002406 	br	803dec <_malloc_r+0x660>
  803d5c:	14000317 	ldw	r16,12(r2)
  803d60:	143f251e 	bne	r2,r16,8039f8 <__alt_mem_onchip_mem+0xff7839f8>
  803d64:	21000084 	addi	r4,r4,2
  803d68:	003ebc06 	br	80385c <__alt_mem_onchip_mem+0xff78385c>
  803d6c:	8085883a 	add	r2,r16,r2
  803d70:	10c00117 	ldw	r3,4(r2)
  803d74:	81000317 	ldw	r4,12(r16)
  803d78:	81400217 	ldw	r5,8(r16)
  803d7c:	18c00054 	ori	r3,r3,1
  803d80:	10c00115 	stw	r3,4(r2)
  803d84:	29000315 	stw	r4,12(r5)
  803d88:	21400215 	stw	r5,8(r4)
  803d8c:	9009883a 	mov	r4,r18
  803d90:	080f6180 	call	80f618 <__malloc_unlock>
  803d94:	80800204 	addi	r2,r16,8
  803d98:	003f2506 	br	803a30 <__alt_mem_onchip_mem+0xff783a30>
  803d9c:	12001704 	addi	r8,r2,92
  803da0:	11c016c4 	addi	r7,r2,91
  803da4:	4209883a 	add	r4,r8,r8
  803da8:	003e9606 	br	803804 <__alt_mem_onchip_mem+0xff783804>
  803dac:	3804d1ba 	srli	r2,r7,6
  803db0:	11400e44 	addi	r5,r2,57
  803db4:	10c00e04 	addi	r3,r2,56
  803db8:	294b883a 	add	r5,r5,r5
  803dbc:	003fbc06 	br	803cb0 <__alt_mem_onchip_mem+0xff783cb0>
  803dc0:	84ff5926 	beq	r16,r19,803b28 <__alt_mem_onchip_mem+0xff783b28>
  803dc4:	00802074 	movhi	r2,129
  803dc8:	108f3704 	addi	r2,r2,15580
  803dcc:	14000217 	ldw	r16,8(r2)
  803dd0:	00bfff04 	movi	r2,-4
  803dd4:	80c00117 	ldw	r3,4(r16)
  803dd8:	1886703a 	and	r3,r3,r2
  803ddc:	003f9106 	br	803c24 <__alt_mem_onchip_mem+0xff783c24>
  803de0:	60800217 	ldw	r2,8(r12)
  803de4:	213fffc4 	addi	r4,r4,-1
  803de8:	1300651e 	bne	r2,r12,803f80 <_malloc_r+0x7f4>
  803dec:	208000cc 	andi	r2,r4,3
  803df0:	633ffe04 	addi	r12,r12,-8
  803df4:	103ffa1e 	bne	r2,zero,803de0 <__alt_mem_onchip_mem+0xff783de0>
  803df8:	98800117 	ldw	r2,4(r19)
  803dfc:	0146303a 	nor	r3,zero,r5
  803e00:	1884703a 	and	r2,r3,r2
  803e04:	98800115 	stw	r2,4(r19)
  803e08:	294b883a 	add	r5,r5,r5
  803e0c:	117f2836 	bltu	r2,r5,803ab0 <__alt_mem_onchip_mem+0xff783ab0>
  803e10:	283f2726 	beq	r5,zero,803ab0 <__alt_mem_onchip_mem+0xff783ab0>
  803e14:	2886703a 	and	r3,r5,r2
  803e18:	5809883a 	mov	r4,r11
  803e1c:	183ec31e 	bne	r3,zero,80392c <__alt_mem_onchip_mem+0xff78392c>
  803e20:	294b883a 	add	r5,r5,r5
  803e24:	2886703a 	and	r3,r5,r2
  803e28:	21000104 	addi	r4,r4,4
  803e2c:	183ffc26 	beq	r3,zero,803e20 <__alt_mem_onchip_mem+0xff783e20>
  803e30:	003ebe06 	br	80392c <__alt_mem_onchip_mem+0xff78392c>
  803e34:	00c05504 	movi	r3,340
  803e38:	18801236 	bltu	r3,r2,803e84 <_malloc_r+0x6f8>
  803e3c:	8804d3fa 	srli	r2,r17,15
  803e40:	12001e04 	addi	r8,r2,120
  803e44:	11c01dc4 	addi	r7,r2,119
  803e48:	4209883a 	add	r4,r8,r8
  803e4c:	003e6d06 	br	803804 <__alt_mem_onchip_mem+0xff783804>
  803e50:	00c40004 	movi	r3,4096
  803e54:	003f4606 	br	803b70 <__alt_mem_onchip_mem+0xff783b70>
  803e58:	00800044 	movi	r2,1
  803e5c:	a0800115 	stw	r2,4(r20)
  803e60:	003f7406 	br	803c34 <__alt_mem_onchip_mem+0xff783c34>
  803e64:	1805d0ba 	srai	r2,r3,2
  803e68:	01c00044 	movi	r7,1
  803e6c:	30c00117 	ldw	r3,4(r6)
  803e70:	388e983a 	sll	r7,r7,r2
  803e74:	2805883a 	mov	r2,r5
  803e78:	38c6b03a 	or	r3,r7,r3
  803e7c:	30c00115 	stw	r3,4(r6)
  803e80:	003f9b06 	br	803cf0 <__alt_mem_onchip_mem+0xff783cf0>
  803e84:	00c15504 	movi	r3,1364
  803e88:	18801a36 	bltu	r3,r2,803ef4 <_malloc_r+0x768>
  803e8c:	8804d4ba 	srli	r2,r17,18
  803e90:	12001f44 	addi	r8,r2,125
  803e94:	11c01f04 	addi	r7,r2,124
  803e98:	4209883a 	add	r4,r8,r8
  803e9c:	003e5906 	br	803804 <__alt_mem_onchip_mem+0xff783804>
  803ea0:	ad400404 	addi	r21,r21,16
  803ea4:	003f1706 	br	803b04 <__alt_mem_onchip_mem+0xff783b04>
  803ea8:	00c01504 	movi	r3,84
  803eac:	18802336 	bltu	r3,r2,803f3c <_malloc_r+0x7b0>
  803eb0:	3804d33a 	srli	r2,r7,12
  803eb4:	11401bc4 	addi	r5,r2,111
  803eb8:	10c01b84 	addi	r3,r2,110
  803ebc:	294b883a 	add	r5,r5,r5
  803ec0:	003f7b06 	br	803cb0 <__alt_mem_onchip_mem+0xff783cb0>
  803ec4:	9c000217 	ldw	r16,8(r19)
  803ec8:	00bfff04 	movi	r2,-4
  803ecc:	80c00117 	ldw	r3,4(r16)
  803ed0:	1886703a 	and	r3,r3,r2
  803ed4:	003f5306 	br	803c24 <__alt_mem_onchip_mem+0xff783c24>
  803ed8:	3083ffcc 	andi	r2,r6,4095
  803edc:	103f181e 	bne	r2,zero,803b40 <__alt_mem_onchip_mem+0xff783b40>
  803ee0:	99000217 	ldw	r4,8(r19)
  803ee4:	b545883a 	add	r2,r22,r21
  803ee8:	10800054 	ori	r2,r2,1
  803eec:	20800115 	stw	r2,4(r4)
  803ef0:	003f3e06 	br	803bec <__alt_mem_onchip_mem+0xff783bec>
  803ef4:	01003f84 	movi	r4,254
  803ef8:	02001fc4 	movi	r8,127
  803efc:	01c01f84 	movi	r7,126
  803f00:	003e4006 	br	803804 <__alt_mem_onchip_mem+0xff783804>
  803f04:	00802074 	movhi	r2,129
  803f08:	10955c04 	addi	r2,r2,21872
  803f0c:	15000015 	stw	r20,0(r2)
  803f10:	003f1106 	br	803b58 <__alt_mem_onchip_mem+0xff783b58>
  803f14:	00800044 	movi	r2,1
  803f18:	002b883a 	mov	r21,zero
  803f1c:	003f1f06 	br	803b9c <__alt_mem_onchip_mem+0xff783b9c>
  803f20:	81400204 	addi	r5,r16,8
  803f24:	9009883a 	mov	r4,r18
  803f28:	0802b5c0 	call	802b5c <_free_r>
  803f2c:	00802074 	movhi	r2,129
  803f30:	109cca04 	addi	r2,r2,29480
  803f34:	10c00017 	ldw	r3,0(r2)
  803f38:	003f2c06 	br	803bec <__alt_mem_onchip_mem+0xff783bec>
  803f3c:	00c05504 	movi	r3,340
  803f40:	18800536 	bltu	r3,r2,803f58 <_malloc_r+0x7cc>
  803f44:	3804d3fa 	srli	r2,r7,15
  803f48:	11401e04 	addi	r5,r2,120
  803f4c:	10c01dc4 	addi	r3,r2,119
  803f50:	294b883a 	add	r5,r5,r5
  803f54:	003f5606 	br	803cb0 <__alt_mem_onchip_mem+0xff783cb0>
  803f58:	00c15504 	movi	r3,1364
  803f5c:	18800536 	bltu	r3,r2,803f74 <_malloc_r+0x7e8>
  803f60:	3804d4ba 	srli	r2,r7,18
  803f64:	11401f44 	addi	r5,r2,125
  803f68:	10c01f04 	addi	r3,r2,124
  803f6c:	294b883a 	add	r5,r5,r5
  803f70:	003f4f06 	br	803cb0 <__alt_mem_onchip_mem+0xff783cb0>
  803f74:	01403f84 	movi	r5,254
  803f78:	00c01f84 	movi	r3,126
  803f7c:	003f4c06 	br	803cb0 <__alt_mem_onchip_mem+0xff783cb0>
  803f80:	98800117 	ldw	r2,4(r19)
  803f84:	003fa006 	br	803e08 <__alt_mem_onchip_mem+0xff783e08>
  803f88:	8808d0fa 	srli	r4,r17,3
  803f8c:	20800044 	addi	r2,r4,1
  803f90:	1085883a 	add	r2,r2,r2
  803f94:	003e9006 	br	8039d8 <__alt_mem_onchip_mem+0xff7839d8>

00803f98 <memcpy>:
  803f98:	defffd04 	addi	sp,sp,-12
  803f9c:	dfc00215 	stw	ra,8(sp)
  803fa0:	dc400115 	stw	r17,4(sp)
  803fa4:	dc000015 	stw	r16,0(sp)
  803fa8:	00c003c4 	movi	r3,15
  803fac:	2005883a 	mov	r2,r4
  803fb0:	1980452e 	bgeu	r3,r6,8040c8 <memcpy+0x130>
  803fb4:	2906b03a 	or	r3,r5,r4
  803fb8:	18c000cc 	andi	r3,r3,3
  803fbc:	1800441e 	bne	r3,zero,8040d0 <memcpy+0x138>
  803fc0:	347ffc04 	addi	r17,r6,-16
  803fc4:	8822d13a 	srli	r17,r17,4
  803fc8:	28c00104 	addi	r3,r5,4
  803fcc:	23400104 	addi	r13,r4,4
  803fd0:	8820913a 	slli	r16,r17,4
  803fd4:	2b000204 	addi	r12,r5,8
  803fd8:	22c00204 	addi	r11,r4,8
  803fdc:	84000504 	addi	r16,r16,20
  803fe0:	2a800304 	addi	r10,r5,12
  803fe4:	22400304 	addi	r9,r4,12
  803fe8:	2c21883a 	add	r16,r5,r16
  803fec:	2811883a 	mov	r8,r5
  803ff0:	200f883a 	mov	r7,r4
  803ff4:	41000017 	ldw	r4,0(r8)
  803ff8:	1fc00017 	ldw	ra,0(r3)
  803ffc:	63c00017 	ldw	r15,0(r12)
  804000:	39000015 	stw	r4,0(r7)
  804004:	53800017 	ldw	r14,0(r10)
  804008:	6fc00015 	stw	ra,0(r13)
  80400c:	5bc00015 	stw	r15,0(r11)
  804010:	4b800015 	stw	r14,0(r9)
  804014:	18c00404 	addi	r3,r3,16
  804018:	39c00404 	addi	r7,r7,16
  80401c:	42000404 	addi	r8,r8,16
  804020:	6b400404 	addi	r13,r13,16
  804024:	63000404 	addi	r12,r12,16
  804028:	5ac00404 	addi	r11,r11,16
  80402c:	52800404 	addi	r10,r10,16
  804030:	4a400404 	addi	r9,r9,16
  804034:	1c3fef1e 	bne	r3,r16,803ff4 <__alt_mem_onchip_mem+0xff783ff4>
  804038:	89c00044 	addi	r7,r17,1
  80403c:	380e913a 	slli	r7,r7,4
  804040:	310003cc 	andi	r4,r6,15
  804044:	02c000c4 	movi	r11,3
  804048:	11c7883a 	add	r3,r2,r7
  80404c:	29cb883a 	add	r5,r5,r7
  804050:	5900212e 	bgeu	r11,r4,8040d8 <memcpy+0x140>
  804054:	1813883a 	mov	r9,r3
  804058:	2811883a 	mov	r8,r5
  80405c:	200f883a 	mov	r7,r4
  804060:	42800017 	ldw	r10,0(r8)
  804064:	4a400104 	addi	r9,r9,4
  804068:	39ffff04 	addi	r7,r7,-4
  80406c:	4abfff15 	stw	r10,-4(r9)
  804070:	42000104 	addi	r8,r8,4
  804074:	59fffa36 	bltu	r11,r7,804060 <__alt_mem_onchip_mem+0xff784060>
  804078:	213fff04 	addi	r4,r4,-4
  80407c:	2008d0ba 	srli	r4,r4,2
  804080:	318000cc 	andi	r6,r6,3
  804084:	21000044 	addi	r4,r4,1
  804088:	2109883a 	add	r4,r4,r4
  80408c:	2109883a 	add	r4,r4,r4
  804090:	1907883a 	add	r3,r3,r4
  804094:	290b883a 	add	r5,r5,r4
  804098:	30000626 	beq	r6,zero,8040b4 <memcpy+0x11c>
  80409c:	198d883a 	add	r6,r3,r6
  8040a0:	29c00003 	ldbu	r7,0(r5)
  8040a4:	18c00044 	addi	r3,r3,1
  8040a8:	29400044 	addi	r5,r5,1
  8040ac:	19ffffc5 	stb	r7,-1(r3)
  8040b0:	19bffb1e 	bne	r3,r6,8040a0 <__alt_mem_onchip_mem+0xff7840a0>
  8040b4:	dfc00217 	ldw	ra,8(sp)
  8040b8:	dc400117 	ldw	r17,4(sp)
  8040bc:	dc000017 	ldw	r16,0(sp)
  8040c0:	dec00304 	addi	sp,sp,12
  8040c4:	f800283a 	ret
  8040c8:	2007883a 	mov	r3,r4
  8040cc:	003ff206 	br	804098 <__alt_mem_onchip_mem+0xff784098>
  8040d0:	2007883a 	mov	r3,r4
  8040d4:	003ff106 	br	80409c <__alt_mem_onchip_mem+0xff78409c>
  8040d8:	200d883a 	mov	r6,r4
  8040dc:	003fee06 	br	804098 <__alt_mem_onchip_mem+0xff784098>

008040e0 <memset>:
  8040e0:	20c000cc 	andi	r3,r4,3
  8040e4:	2005883a 	mov	r2,r4
  8040e8:	18004426 	beq	r3,zero,8041fc <memset+0x11c>
  8040ec:	31ffffc4 	addi	r7,r6,-1
  8040f0:	30004026 	beq	r6,zero,8041f4 <memset+0x114>
  8040f4:	2813883a 	mov	r9,r5
  8040f8:	200d883a 	mov	r6,r4
  8040fc:	2007883a 	mov	r3,r4
  804100:	00000406 	br	804114 <memset+0x34>
  804104:	3a3fffc4 	addi	r8,r7,-1
  804108:	31800044 	addi	r6,r6,1
  80410c:	38003926 	beq	r7,zero,8041f4 <memset+0x114>
  804110:	400f883a 	mov	r7,r8
  804114:	18c00044 	addi	r3,r3,1
  804118:	32400005 	stb	r9,0(r6)
  80411c:	1a0000cc 	andi	r8,r3,3
  804120:	403ff81e 	bne	r8,zero,804104 <__alt_mem_onchip_mem+0xff784104>
  804124:	010000c4 	movi	r4,3
  804128:	21c02d2e 	bgeu	r4,r7,8041e0 <memset+0x100>
  80412c:	29003fcc 	andi	r4,r5,255
  804130:	200c923a 	slli	r6,r4,8
  804134:	3108b03a 	or	r4,r6,r4
  804138:	200c943a 	slli	r6,r4,16
  80413c:	218cb03a 	or	r6,r4,r6
  804140:	010003c4 	movi	r4,15
  804144:	21c0182e 	bgeu	r4,r7,8041a8 <memset+0xc8>
  804148:	3b3ffc04 	addi	r12,r7,-16
  80414c:	6018d13a 	srli	r12,r12,4
  804150:	1a000104 	addi	r8,r3,4
  804154:	1ac00204 	addi	r11,r3,8
  804158:	6008913a 	slli	r4,r12,4
  80415c:	1a800304 	addi	r10,r3,12
  804160:	1813883a 	mov	r9,r3
  804164:	21000504 	addi	r4,r4,20
  804168:	1909883a 	add	r4,r3,r4
  80416c:	49800015 	stw	r6,0(r9)
  804170:	41800015 	stw	r6,0(r8)
  804174:	59800015 	stw	r6,0(r11)
  804178:	51800015 	stw	r6,0(r10)
  80417c:	42000404 	addi	r8,r8,16
  804180:	4a400404 	addi	r9,r9,16
  804184:	5ac00404 	addi	r11,r11,16
  804188:	52800404 	addi	r10,r10,16
  80418c:	413ff71e 	bne	r8,r4,80416c <__alt_mem_onchip_mem+0xff78416c>
  804190:	63000044 	addi	r12,r12,1
  804194:	6018913a 	slli	r12,r12,4
  804198:	39c003cc 	andi	r7,r7,15
  80419c:	010000c4 	movi	r4,3
  8041a0:	1b07883a 	add	r3,r3,r12
  8041a4:	21c00e2e 	bgeu	r4,r7,8041e0 <memset+0x100>
  8041a8:	1813883a 	mov	r9,r3
  8041ac:	3811883a 	mov	r8,r7
  8041b0:	010000c4 	movi	r4,3
  8041b4:	49800015 	stw	r6,0(r9)
  8041b8:	423fff04 	addi	r8,r8,-4
  8041bc:	4a400104 	addi	r9,r9,4
  8041c0:	223ffc36 	bltu	r4,r8,8041b4 <__alt_mem_onchip_mem+0xff7841b4>
  8041c4:	393fff04 	addi	r4,r7,-4
  8041c8:	2008d0ba 	srli	r4,r4,2
  8041cc:	39c000cc 	andi	r7,r7,3
  8041d0:	21000044 	addi	r4,r4,1
  8041d4:	2109883a 	add	r4,r4,r4
  8041d8:	2109883a 	add	r4,r4,r4
  8041dc:	1907883a 	add	r3,r3,r4
  8041e0:	38000526 	beq	r7,zero,8041f8 <memset+0x118>
  8041e4:	19cf883a 	add	r7,r3,r7
  8041e8:	19400005 	stb	r5,0(r3)
  8041ec:	18c00044 	addi	r3,r3,1
  8041f0:	38fffd1e 	bne	r7,r3,8041e8 <__alt_mem_onchip_mem+0xff7841e8>
  8041f4:	f800283a 	ret
  8041f8:	f800283a 	ret
  8041fc:	2007883a 	mov	r3,r4
  804200:	300f883a 	mov	r7,r6
  804204:	003fc706 	br	804124 <__alt_mem_onchip_mem+0xff784124>

00804208 <_open_r>:
  804208:	defffd04 	addi	sp,sp,-12
  80420c:	2805883a 	mov	r2,r5
  804210:	dc000015 	stw	r16,0(sp)
  804214:	04002074 	movhi	r16,129
  804218:	dc400115 	stw	r17,4(sp)
  80421c:	300b883a 	mov	r5,r6
  804220:	841cbc04 	addi	r16,r16,29424
  804224:	2023883a 	mov	r17,r4
  804228:	380d883a 	mov	r6,r7
  80422c:	1009883a 	mov	r4,r2
  804230:	dfc00215 	stw	ra,8(sp)
  804234:	80000015 	stw	zero,0(r16)
  804238:	080f73c0 	call	80f73c <open>
  80423c:	00ffffc4 	movi	r3,-1
  804240:	10c00526 	beq	r2,r3,804258 <_open_r+0x50>
  804244:	dfc00217 	ldw	ra,8(sp)
  804248:	dc400117 	ldw	r17,4(sp)
  80424c:	dc000017 	ldw	r16,0(sp)
  804250:	dec00304 	addi	sp,sp,12
  804254:	f800283a 	ret
  804258:	80c00017 	ldw	r3,0(r16)
  80425c:	183ff926 	beq	r3,zero,804244 <__alt_mem_onchip_mem+0xff784244>
  804260:	88c00015 	stw	r3,0(r17)
  804264:	003ff706 	br	804244 <__alt_mem_onchip_mem+0xff784244>

00804268 <_printf_r>:
  804268:	defffd04 	addi	sp,sp,-12
  80426c:	2805883a 	mov	r2,r5
  804270:	dfc00015 	stw	ra,0(sp)
  804274:	d9800115 	stw	r6,4(sp)
  804278:	d9c00215 	stw	r7,8(sp)
  80427c:	21400217 	ldw	r5,8(r4)
  804280:	d9c00104 	addi	r7,sp,4
  804284:	100d883a 	mov	r6,r2
  804288:	0804ce00 	call	804ce0 <___vfprintf_internal_r>
  80428c:	dfc00017 	ldw	ra,0(sp)
  804290:	dec00304 	addi	sp,sp,12
  804294:	f800283a 	ret

00804298 <printf>:
  804298:	defffc04 	addi	sp,sp,-16
  80429c:	dfc00015 	stw	ra,0(sp)
  8042a0:	d9400115 	stw	r5,4(sp)
  8042a4:	d9800215 	stw	r6,8(sp)
  8042a8:	d9c00315 	stw	r7,12(sp)
  8042ac:	00802074 	movhi	r2,129
  8042b0:	10955b04 	addi	r2,r2,21868
  8042b4:	10800017 	ldw	r2,0(r2)
  8042b8:	200b883a 	mov	r5,r4
  8042bc:	d9800104 	addi	r6,sp,4
  8042c0:	11000217 	ldw	r4,8(r2)
  8042c4:	0806ed80 	call	806ed8 <__vfprintf_internal>
  8042c8:	dfc00017 	ldw	ra,0(sp)
  8042cc:	dec00404 	addi	sp,sp,16
  8042d0:	f800283a 	ret

008042d4 <_putc_r>:
  8042d4:	defffc04 	addi	sp,sp,-16
  8042d8:	dc000215 	stw	r16,8(sp)
  8042dc:	dfc00315 	stw	ra,12(sp)
  8042e0:	2021883a 	mov	r16,r4
  8042e4:	20000226 	beq	r4,zero,8042f0 <_putc_r+0x1c>
  8042e8:	20800e17 	ldw	r2,56(r4)
  8042ec:	10001b26 	beq	r2,zero,80435c <_putc_r+0x88>
  8042f0:	30800217 	ldw	r2,8(r6)
  8042f4:	10bfffc4 	addi	r2,r2,-1
  8042f8:	30800215 	stw	r2,8(r6)
  8042fc:	10000a16 	blt	r2,zero,804328 <_putc_r+0x54>
  804300:	30800017 	ldw	r2,0(r6)
  804304:	11400005 	stb	r5,0(r2)
  804308:	30800017 	ldw	r2,0(r6)
  80430c:	10c00044 	addi	r3,r2,1
  804310:	30c00015 	stw	r3,0(r6)
  804314:	10800003 	ldbu	r2,0(r2)
  804318:	dfc00317 	ldw	ra,12(sp)
  80431c:	dc000217 	ldw	r16,8(sp)
  804320:	dec00404 	addi	sp,sp,16
  804324:	f800283a 	ret
  804328:	30c00617 	ldw	r3,24(r6)
  80432c:	10c00616 	blt	r2,r3,804348 <_putc_r+0x74>
  804330:	30800017 	ldw	r2,0(r6)
  804334:	00c00284 	movi	r3,10
  804338:	11400005 	stb	r5,0(r2)
  80433c:	30800017 	ldw	r2,0(r6)
  804340:	11400003 	ldbu	r5,0(r2)
  804344:	28fff11e 	bne	r5,r3,80430c <__alt_mem_onchip_mem+0xff78430c>
  804348:	8009883a 	mov	r4,r16
  80434c:	dfc00317 	ldw	ra,12(sp)
  804350:	dc000217 	ldw	r16,8(sp)
  804354:	dec00404 	addi	sp,sp,16
  804358:	0806fb01 	jmpi	806fb0 <__swbuf_r>
  80435c:	d9400015 	stw	r5,0(sp)
  804360:	d9800115 	stw	r6,4(sp)
  804364:	08027f00 	call	8027f0 <__sinit>
  804368:	d9800117 	ldw	r6,4(sp)
  80436c:	d9400017 	ldw	r5,0(sp)
  804370:	003fdf06 	br	8042f0 <__alt_mem_onchip_mem+0xff7842f0>

00804374 <putc>:
  804374:	00802074 	movhi	r2,129
  804378:	defffc04 	addi	sp,sp,-16
  80437c:	10955b04 	addi	r2,r2,21868
  804380:	dc000115 	stw	r16,4(sp)
  804384:	14000017 	ldw	r16,0(r2)
  804388:	dc400215 	stw	r17,8(sp)
  80438c:	dfc00315 	stw	ra,12(sp)
  804390:	2023883a 	mov	r17,r4
  804394:	80000226 	beq	r16,zero,8043a0 <putc+0x2c>
  804398:	80800e17 	ldw	r2,56(r16)
  80439c:	10001a26 	beq	r2,zero,804408 <putc+0x94>
  8043a0:	28800217 	ldw	r2,8(r5)
  8043a4:	10bfffc4 	addi	r2,r2,-1
  8043a8:	28800215 	stw	r2,8(r5)
  8043ac:	10000b16 	blt	r2,zero,8043dc <putc+0x68>
  8043b0:	28800017 	ldw	r2,0(r5)
  8043b4:	14400005 	stb	r17,0(r2)
  8043b8:	28800017 	ldw	r2,0(r5)
  8043bc:	10c00044 	addi	r3,r2,1
  8043c0:	28c00015 	stw	r3,0(r5)
  8043c4:	10800003 	ldbu	r2,0(r2)
  8043c8:	dfc00317 	ldw	ra,12(sp)
  8043cc:	dc400217 	ldw	r17,8(sp)
  8043d0:	dc000117 	ldw	r16,4(sp)
  8043d4:	dec00404 	addi	sp,sp,16
  8043d8:	f800283a 	ret
  8043dc:	28c00617 	ldw	r3,24(r5)
  8043e0:	10c00e16 	blt	r2,r3,80441c <putc+0xa8>
  8043e4:	28800017 	ldw	r2,0(r5)
  8043e8:	01000284 	movi	r4,10
  8043ec:	14400005 	stb	r17,0(r2)
  8043f0:	28800017 	ldw	r2,0(r5)
  8043f4:	10c00003 	ldbu	r3,0(r2)
  8043f8:	193ff01e 	bne	r3,r4,8043bc <__alt_mem_onchip_mem+0xff7843bc>
  8043fc:	280d883a 	mov	r6,r5
  804400:	180b883a 	mov	r5,r3
  804404:	00000706 	br	804424 <putc+0xb0>
  804408:	8009883a 	mov	r4,r16
  80440c:	d9400015 	stw	r5,0(sp)
  804410:	08027f00 	call	8027f0 <__sinit>
  804414:	d9400017 	ldw	r5,0(sp)
  804418:	003fe106 	br	8043a0 <__alt_mem_onchip_mem+0xff7843a0>
  80441c:	280d883a 	mov	r6,r5
  804420:	880b883a 	mov	r5,r17
  804424:	8009883a 	mov	r4,r16
  804428:	dfc00317 	ldw	ra,12(sp)
  80442c:	dc400217 	ldw	r17,8(sp)
  804430:	dc000117 	ldw	r16,4(sp)
  804434:	dec00404 	addi	sp,sp,16
  804438:	0806fb01 	jmpi	806fb0 <__swbuf_r>

0080443c <_putchar_r>:
  80443c:	21800217 	ldw	r6,8(r4)
  804440:	08042d41 	jmpi	8042d4 <_putc_r>

00804444 <putchar>:
  804444:	00802074 	movhi	r2,129
  804448:	10955b04 	addi	r2,r2,21868
  80444c:	200b883a 	mov	r5,r4
  804450:	11000017 	ldw	r4,0(r2)
  804454:	21800217 	ldw	r6,8(r4)
  804458:	08042d41 	jmpi	8042d4 <_putc_r>

0080445c <_puts_r>:
  80445c:	defff604 	addi	sp,sp,-40
  804460:	dc000715 	stw	r16,28(sp)
  804464:	2021883a 	mov	r16,r4
  804468:	2809883a 	mov	r4,r5
  80446c:	dc400815 	stw	r17,32(sp)
  804470:	dfc00915 	stw	ra,36(sp)
  804474:	2823883a 	mov	r17,r5
  804478:	08049380 	call	804938 <strlen>
  80447c:	10c00044 	addi	r3,r2,1
  804480:	d8800115 	stw	r2,4(sp)
  804484:	00802074 	movhi	r2,129
  804488:	108d0b04 	addi	r2,r2,13356
  80448c:	d8800215 	stw	r2,8(sp)
  804490:	00800044 	movi	r2,1
  804494:	d8800315 	stw	r2,12(sp)
  804498:	00800084 	movi	r2,2
  80449c:	dc400015 	stw	r17,0(sp)
  8044a0:	d8c00615 	stw	r3,24(sp)
  8044a4:	dec00415 	stw	sp,16(sp)
  8044a8:	d8800515 	stw	r2,20(sp)
  8044ac:	80000226 	beq	r16,zero,8044b8 <_puts_r+0x5c>
  8044b0:	80800e17 	ldw	r2,56(r16)
  8044b4:	10001426 	beq	r2,zero,804508 <_puts_r+0xac>
  8044b8:	81400217 	ldw	r5,8(r16)
  8044bc:	2880030b 	ldhu	r2,12(r5)
  8044c0:	10c8000c 	andi	r3,r2,8192
  8044c4:	1800061e 	bne	r3,zero,8044e0 <_puts_r+0x84>
  8044c8:	29001917 	ldw	r4,100(r5)
  8044cc:	00f7ffc4 	movi	r3,-8193
  8044d0:	10880014 	ori	r2,r2,8192
  8044d4:	20c6703a 	and	r3,r4,r3
  8044d8:	2880030d 	sth	r2,12(r5)
  8044dc:	28c01915 	stw	r3,100(r5)
  8044e0:	d9800404 	addi	r6,sp,16
  8044e4:	8009883a 	mov	r4,r16
  8044e8:	0808c440 	call	808c44 <__sfvwrite_r>
  8044ec:	1000091e 	bne	r2,zero,804514 <_puts_r+0xb8>
  8044f0:	00800284 	movi	r2,10
  8044f4:	dfc00917 	ldw	ra,36(sp)
  8044f8:	dc400817 	ldw	r17,32(sp)
  8044fc:	dc000717 	ldw	r16,28(sp)
  804500:	dec00a04 	addi	sp,sp,40
  804504:	f800283a 	ret
  804508:	8009883a 	mov	r4,r16
  80450c:	08027f00 	call	8027f0 <__sinit>
  804510:	003fe906 	br	8044b8 <__alt_mem_onchip_mem+0xff7844b8>
  804514:	00bfffc4 	movi	r2,-1
  804518:	003ff606 	br	8044f4 <__alt_mem_onchip_mem+0xff7844f4>

0080451c <puts>:
  80451c:	00802074 	movhi	r2,129
  804520:	10955b04 	addi	r2,r2,21868
  804524:	200b883a 	mov	r5,r4
  804528:	11000017 	ldw	r4,0(r2)
  80452c:	080445c1 	jmpi	80445c <_puts_r>

00804530 <lflush>:
  804530:	2080030b 	ldhu	r2,12(r4)
  804534:	00c00244 	movi	r3,9
  804538:	1080024c 	andi	r2,r2,9
  80453c:	10c00226 	beq	r2,r3,804548 <lflush+0x18>
  804540:	0005883a 	mov	r2,zero
  804544:	f800283a 	ret
  804548:	08023781 	jmpi	802378 <fflush>

0080454c <__srefill_r>:
  80454c:	defffc04 	addi	sp,sp,-16
  804550:	dc400115 	stw	r17,4(sp)
  804554:	dc000015 	stw	r16,0(sp)
  804558:	dfc00315 	stw	ra,12(sp)
  80455c:	dc800215 	stw	r18,8(sp)
  804560:	2023883a 	mov	r17,r4
  804564:	2821883a 	mov	r16,r5
  804568:	20000226 	beq	r4,zero,804574 <__srefill_r+0x28>
  80456c:	20800e17 	ldw	r2,56(r4)
  804570:	10003c26 	beq	r2,zero,804664 <__srefill_r+0x118>
  804574:	80c0030b 	ldhu	r3,12(r16)
  804578:	1908000c 	andi	r4,r3,8192
  80457c:	1805883a 	mov	r2,r3
  804580:	2000071e 	bne	r4,zero,8045a0 <__srefill_r+0x54>
  804584:	81001917 	ldw	r4,100(r16)
  804588:	18880014 	ori	r2,r3,8192
  80458c:	00f7ffc4 	movi	r3,-8193
  804590:	20c8703a 	and	r4,r4,r3
  804594:	8080030d 	sth	r2,12(r16)
  804598:	1007883a 	mov	r3,r2
  80459c:	81001915 	stw	r4,100(r16)
  8045a0:	80000115 	stw	zero,4(r16)
  8045a4:	1100080c 	andi	r4,r2,32
  8045a8:	2000571e 	bne	r4,zero,804708 <__srefill_r+0x1bc>
  8045ac:	1100010c 	andi	r4,r2,4
  8045b0:	20001f26 	beq	r4,zero,804630 <__srefill_r+0xe4>
  8045b4:	81400c17 	ldw	r5,48(r16)
  8045b8:	28000826 	beq	r5,zero,8045dc <__srefill_r+0x90>
  8045bc:	80801004 	addi	r2,r16,64
  8045c0:	28800226 	beq	r5,r2,8045cc <__srefill_r+0x80>
  8045c4:	8809883a 	mov	r4,r17
  8045c8:	0802b5c0 	call	802b5c <_free_r>
  8045cc:	80800f17 	ldw	r2,60(r16)
  8045d0:	80000c15 	stw	zero,48(r16)
  8045d4:	80800115 	stw	r2,4(r16)
  8045d8:	1000391e 	bne	r2,zero,8046c0 <__srefill_r+0x174>
  8045dc:	80800417 	ldw	r2,16(r16)
  8045e0:	10004b26 	beq	r2,zero,804710 <__srefill_r+0x1c4>
  8045e4:	8480030b 	ldhu	r18,12(r16)
  8045e8:	908000cc 	andi	r2,r18,3
  8045ec:	10001f1e 	bne	r2,zero,80466c <__srefill_r+0x120>
  8045f0:	81800417 	ldw	r6,16(r16)
  8045f4:	80800817 	ldw	r2,32(r16)
  8045f8:	81c00517 	ldw	r7,20(r16)
  8045fc:	81400717 	ldw	r5,28(r16)
  804600:	81800015 	stw	r6,0(r16)
  804604:	8809883a 	mov	r4,r17
  804608:	103ee83a 	callr	r2
  80460c:	80800115 	stw	r2,4(r16)
  804610:	00800e0e 	bge	zero,r2,80464c <__srefill_r+0x100>
  804614:	0005883a 	mov	r2,zero
  804618:	dfc00317 	ldw	ra,12(sp)
  80461c:	dc800217 	ldw	r18,8(sp)
  804620:	dc400117 	ldw	r17,4(sp)
  804624:	dc000017 	ldw	r16,0(sp)
  804628:	dec00404 	addi	sp,sp,16
  80462c:	f800283a 	ret
  804630:	1100040c 	andi	r4,r2,16
  804634:	20003026 	beq	r4,zero,8046f8 <__srefill_r+0x1ac>
  804638:	1080020c 	andi	r2,r2,8
  80463c:	1000241e 	bne	r2,zero,8046d0 <__srefill_r+0x184>
  804640:	18c00114 	ori	r3,r3,4
  804644:	80c0030d 	sth	r3,12(r16)
  804648:	003fe406 	br	8045dc <__alt_mem_onchip_mem+0xff7845dc>
  80464c:	80c0030b 	ldhu	r3,12(r16)
  804650:	1000161e 	bne	r2,zero,8046ac <__srefill_r+0x160>
  804654:	18c00814 	ori	r3,r3,32
  804658:	00bfffc4 	movi	r2,-1
  80465c:	80c0030d 	sth	r3,12(r16)
  804660:	003fed06 	br	804618 <__alt_mem_onchip_mem+0xff784618>
  804664:	08027f00 	call	8027f0 <__sinit>
  804668:	003fc206 	br	804574 <__alt_mem_onchip_mem+0xff784574>
  80466c:	00802074 	movhi	r2,129
  804670:	10955a04 	addi	r2,r2,21864
  804674:	11000017 	ldw	r4,0(r2)
  804678:	01402034 	movhi	r5,128
  80467c:	00800044 	movi	r2,1
  804680:	29514c04 	addi	r5,r5,17712
  804684:	8080030d 	sth	r2,12(r16)
  804688:	08033480 	call	803348 <_fwalk>
  80468c:	00800244 	movi	r2,9
  804690:	8480030d 	sth	r18,12(r16)
  804694:	9480024c 	andi	r18,r18,9
  804698:	90bfd51e 	bne	r18,r2,8045f0 <__alt_mem_onchip_mem+0xff7845f0>
  80469c:	800b883a 	mov	r5,r16
  8046a0:	8809883a 	mov	r4,r17
  8046a4:	08021000 	call	802100 <__sflush_r>
  8046a8:	003fd106 	br	8045f0 <__alt_mem_onchip_mem+0xff7845f0>
  8046ac:	18c01014 	ori	r3,r3,64
  8046b0:	80000115 	stw	zero,4(r16)
  8046b4:	00bfffc4 	movi	r2,-1
  8046b8:	80c0030d 	sth	r3,12(r16)
  8046bc:	003fd606 	br	804618 <__alt_mem_onchip_mem+0xff784618>
  8046c0:	80c00e17 	ldw	r3,56(r16)
  8046c4:	0005883a 	mov	r2,zero
  8046c8:	80c00015 	stw	r3,0(r16)
  8046cc:	003fd206 	br	804618 <__alt_mem_onchip_mem+0xff784618>
  8046d0:	800b883a 	mov	r5,r16
  8046d4:	8809883a 	mov	r4,r17
  8046d8:	080231c0 	call	80231c <_fflush_r>
  8046dc:	10000a1e 	bne	r2,zero,804708 <__srefill_r+0x1bc>
  8046e0:	8080030b 	ldhu	r2,12(r16)
  8046e4:	00fffdc4 	movi	r3,-9
  8046e8:	80000215 	stw	zero,8(r16)
  8046ec:	1886703a 	and	r3,r3,r2
  8046f0:	80000615 	stw	zero,24(r16)
  8046f4:	003fd206 	br	804640 <__alt_mem_onchip_mem+0xff784640>
  8046f8:	00800244 	movi	r2,9
  8046fc:	88800015 	stw	r2,0(r17)
  804700:	18c01014 	ori	r3,r3,64
  804704:	80c0030d 	sth	r3,12(r16)
  804708:	00bfffc4 	movi	r2,-1
  80470c:	003fc206 	br	804618 <__alt_mem_onchip_mem+0xff784618>
  804710:	800b883a 	mov	r5,r16
  804714:	8809883a 	mov	r4,r17
  804718:	08035d00 	call	8035d0 <__smakebuf_r>
  80471c:	003fb106 	br	8045e4 <__alt_mem_onchip_mem+0xff7845e4>

00804720 <__srget_r>:
  804720:	defffd04 	addi	sp,sp,-12
  804724:	dc400115 	stw	r17,4(sp)
  804728:	dc000015 	stw	r16,0(sp)
  80472c:	dfc00215 	stw	ra,8(sp)
  804730:	2023883a 	mov	r17,r4
  804734:	2821883a 	mov	r16,r5
  804738:	20000226 	beq	r4,zero,804744 <__srget_r+0x24>
  80473c:	20800e17 	ldw	r2,56(r4)
  804740:	10001026 	beq	r2,zero,804784 <__srget_r+0x64>
  804744:	800b883a 	mov	r5,r16
  804748:	8809883a 	mov	r4,r17
  80474c:	080454c0 	call	80454c <__srefill_r>
  804750:	10000e1e 	bne	r2,zero,80478c <__srget_r+0x6c>
  804754:	80c00017 	ldw	r3,0(r16)
  804758:	80800117 	ldw	r2,4(r16)
  80475c:	19000044 	addi	r4,r3,1
  804760:	10bfffc4 	addi	r2,r2,-1
  804764:	80800115 	stw	r2,4(r16)
  804768:	81000015 	stw	r4,0(r16)
  80476c:	18800003 	ldbu	r2,0(r3)
  804770:	dfc00217 	ldw	ra,8(sp)
  804774:	dc400117 	ldw	r17,4(sp)
  804778:	dc000017 	ldw	r16,0(sp)
  80477c:	dec00304 	addi	sp,sp,12
  804780:	f800283a 	ret
  804784:	08027f00 	call	8027f0 <__sinit>
  804788:	003fee06 	br	804744 <__alt_mem_onchip_mem+0xff784744>
  80478c:	00bfffc4 	movi	r2,-1
  804790:	003ff706 	br	804770 <__alt_mem_onchip_mem+0xff784770>

00804794 <__srget>:
  804794:	00802074 	movhi	r2,129
  804798:	10955b04 	addi	r2,r2,21868
  80479c:	200b883a 	mov	r5,r4
  8047a0:	11000017 	ldw	r4,0(r2)
  8047a4:	08047201 	jmpi	804720 <__srget_r>

008047a8 <_sbrk_r>:
  8047a8:	defffd04 	addi	sp,sp,-12
  8047ac:	dc000015 	stw	r16,0(sp)
  8047b0:	04002074 	movhi	r16,129
  8047b4:	dc400115 	stw	r17,4(sp)
  8047b8:	841cbc04 	addi	r16,r16,29424
  8047bc:	2023883a 	mov	r17,r4
  8047c0:	2809883a 	mov	r4,r5
  8047c4:	dfc00215 	stw	ra,8(sp)
  8047c8:	80000015 	stw	zero,0(r16)
  8047cc:	080fa2c0 	call	80fa2c <sbrk>
  8047d0:	00ffffc4 	movi	r3,-1
  8047d4:	10c00526 	beq	r2,r3,8047ec <_sbrk_r+0x44>
  8047d8:	dfc00217 	ldw	ra,8(sp)
  8047dc:	dc400117 	ldw	r17,4(sp)
  8047e0:	dc000017 	ldw	r16,0(sp)
  8047e4:	dec00304 	addi	sp,sp,12
  8047e8:	f800283a 	ret
  8047ec:	80c00017 	ldw	r3,0(r16)
  8047f0:	183ff926 	beq	r3,zero,8047d8 <__alt_mem_onchip_mem+0xff7847d8>
  8047f4:	88c00015 	stw	r3,0(r17)
  8047f8:	003ff706 	br	8047d8 <__alt_mem_onchip_mem+0xff7847d8>

008047fc <__sread>:
  8047fc:	defffe04 	addi	sp,sp,-8
  804800:	dc000015 	stw	r16,0(sp)
  804804:	2821883a 	mov	r16,r5
  804808:	2940038f 	ldh	r5,14(r5)
  80480c:	dfc00115 	stw	ra,4(sp)
  804810:	080a4cc0 	call	80a4cc <_read_r>
  804814:	10000716 	blt	r2,zero,804834 <__sread+0x38>
  804818:	80c01417 	ldw	r3,80(r16)
  80481c:	1887883a 	add	r3,r3,r2
  804820:	80c01415 	stw	r3,80(r16)
  804824:	dfc00117 	ldw	ra,4(sp)
  804828:	dc000017 	ldw	r16,0(sp)
  80482c:	dec00204 	addi	sp,sp,8
  804830:	f800283a 	ret
  804834:	80c0030b 	ldhu	r3,12(r16)
  804838:	18fbffcc 	andi	r3,r3,61439
  80483c:	80c0030d 	sth	r3,12(r16)
  804840:	dfc00117 	ldw	ra,4(sp)
  804844:	dc000017 	ldw	r16,0(sp)
  804848:	dec00204 	addi	sp,sp,8
  80484c:	f800283a 	ret

00804850 <__seofread>:
  804850:	0005883a 	mov	r2,zero
  804854:	f800283a 	ret

00804858 <__swrite>:
  804858:	2880030b 	ldhu	r2,12(r5)
  80485c:	defffb04 	addi	sp,sp,-20
  804860:	dcc00315 	stw	r19,12(sp)
  804864:	dc800215 	stw	r18,8(sp)
  804868:	dc400115 	stw	r17,4(sp)
  80486c:	dc000015 	stw	r16,0(sp)
  804870:	dfc00415 	stw	ra,16(sp)
  804874:	10c0400c 	andi	r3,r2,256
  804878:	2821883a 	mov	r16,r5
  80487c:	2023883a 	mov	r17,r4
  804880:	3025883a 	mov	r18,r6
  804884:	3827883a 	mov	r19,r7
  804888:	18000526 	beq	r3,zero,8048a0 <__swrite+0x48>
  80488c:	2940038f 	ldh	r5,14(r5)
  804890:	01c00084 	movi	r7,2
  804894:	000d883a 	mov	r6,zero
  804898:	08092300 	call	809230 <_lseek_r>
  80489c:	8080030b 	ldhu	r2,12(r16)
  8048a0:	8140038f 	ldh	r5,14(r16)
  8048a4:	10bbffcc 	andi	r2,r2,61439
  8048a8:	980f883a 	mov	r7,r19
  8048ac:	900d883a 	mov	r6,r18
  8048b0:	8809883a 	mov	r4,r17
  8048b4:	8080030d 	sth	r2,12(r16)
  8048b8:	dfc00417 	ldw	ra,16(sp)
  8048bc:	dcc00317 	ldw	r19,12(sp)
  8048c0:	dc800217 	ldw	r18,8(sp)
  8048c4:	dc400117 	ldw	r17,4(sp)
  8048c8:	dc000017 	ldw	r16,0(sp)
  8048cc:	dec00504 	addi	sp,sp,20
  8048d0:	08071081 	jmpi	807108 <_write_r>

008048d4 <__sseek>:
  8048d4:	defffe04 	addi	sp,sp,-8
  8048d8:	dc000015 	stw	r16,0(sp)
  8048dc:	2821883a 	mov	r16,r5
  8048e0:	2940038f 	ldh	r5,14(r5)
  8048e4:	dfc00115 	stw	ra,4(sp)
  8048e8:	08092300 	call	809230 <_lseek_r>
  8048ec:	00ffffc4 	movi	r3,-1
  8048f0:	10c00826 	beq	r2,r3,804914 <__sseek+0x40>
  8048f4:	80c0030b 	ldhu	r3,12(r16)
  8048f8:	80801415 	stw	r2,80(r16)
  8048fc:	18c40014 	ori	r3,r3,4096
  804900:	80c0030d 	sth	r3,12(r16)
  804904:	dfc00117 	ldw	ra,4(sp)
  804908:	dc000017 	ldw	r16,0(sp)
  80490c:	dec00204 	addi	sp,sp,8
  804910:	f800283a 	ret
  804914:	80c0030b 	ldhu	r3,12(r16)
  804918:	18fbffcc 	andi	r3,r3,61439
  80491c:	80c0030d 	sth	r3,12(r16)
  804920:	dfc00117 	ldw	ra,4(sp)
  804924:	dc000017 	ldw	r16,0(sp)
  804928:	dec00204 	addi	sp,sp,8
  80492c:	f800283a 	ret

00804930 <__sclose>:
  804930:	2940038f 	ldh	r5,14(r5)
  804934:	08072bc1 	jmpi	8072bc <_close_r>

00804938 <strlen>:
  804938:	208000cc 	andi	r2,r4,3
  80493c:	10002026 	beq	r2,zero,8049c0 <strlen+0x88>
  804940:	20800007 	ldb	r2,0(r4)
  804944:	10002026 	beq	r2,zero,8049c8 <strlen+0x90>
  804948:	2005883a 	mov	r2,r4
  80494c:	00000206 	br	804958 <strlen+0x20>
  804950:	10c00007 	ldb	r3,0(r2)
  804954:	18001826 	beq	r3,zero,8049b8 <strlen+0x80>
  804958:	10800044 	addi	r2,r2,1
  80495c:	10c000cc 	andi	r3,r2,3
  804960:	183ffb1e 	bne	r3,zero,804950 <__alt_mem_onchip_mem+0xff784950>
  804964:	10c00017 	ldw	r3,0(r2)
  804968:	01ffbff4 	movhi	r7,65279
  80496c:	39ffbfc4 	addi	r7,r7,-257
  804970:	00ca303a 	nor	r5,zero,r3
  804974:	01a02074 	movhi	r6,32897
  804978:	19c7883a 	add	r3,r3,r7
  80497c:	31a02004 	addi	r6,r6,-32640
  804980:	1946703a 	and	r3,r3,r5
  804984:	1986703a 	and	r3,r3,r6
  804988:	1800091e 	bne	r3,zero,8049b0 <strlen+0x78>
  80498c:	10800104 	addi	r2,r2,4
  804990:	10c00017 	ldw	r3,0(r2)
  804994:	19cb883a 	add	r5,r3,r7
  804998:	00c6303a 	nor	r3,zero,r3
  80499c:	28c6703a 	and	r3,r5,r3
  8049a0:	1986703a 	and	r3,r3,r6
  8049a4:	183ff926 	beq	r3,zero,80498c <__alt_mem_onchip_mem+0xff78498c>
  8049a8:	00000106 	br	8049b0 <strlen+0x78>
  8049ac:	10800044 	addi	r2,r2,1
  8049b0:	10c00007 	ldb	r3,0(r2)
  8049b4:	183ffd1e 	bne	r3,zero,8049ac <__alt_mem_onchip_mem+0xff7849ac>
  8049b8:	1105c83a 	sub	r2,r2,r4
  8049bc:	f800283a 	ret
  8049c0:	2005883a 	mov	r2,r4
  8049c4:	003fe706 	br	804964 <__alt_mem_onchip_mem+0xff784964>
  8049c8:	0005883a 	mov	r2,zero
  8049cc:	f800283a 	ret

008049d0 <strtok>:
  8049d0:	00802074 	movhi	r2,129
  8049d4:	10955b04 	addi	r2,r2,21868
  8049d8:	11800017 	ldw	r6,0(r2)
  8049dc:	01c00044 	movi	r7,1
  8049e0:	31801704 	addi	r6,r6,92
  8049e4:	08049e81 	jmpi	8049e8 <__strtok_r>

008049e8 <__strtok_r>:
  8049e8:	20001f26 	beq	r4,zero,804a68 <__strtok_r+0x80>
  8049ec:	2005883a 	mov	r2,r4
  8049f0:	22400007 	ldb	r9,0(r4)
  8049f4:	2807883a 	mov	r3,r5
  8049f8:	21000044 	addi	r4,r4,1
  8049fc:	00000106 	br	804a04 <__strtok_r+0x1c>
  804a00:	4a001226 	beq	r9,r8,804a4c <__strtok_r+0x64>
  804a04:	1a000007 	ldb	r8,0(r3)
  804a08:	18c00044 	addi	r3,r3,1
  804a0c:	403ffc1e 	bne	r8,zero,804a00 <__alt_mem_onchip_mem+0xff784a00>
  804a10:	48001926 	beq	r9,zero,804a78 <__strtok_r+0x90>
  804a14:	22000007 	ldb	r8,0(r4)
  804a18:	2013883a 	mov	r9,r4
  804a1c:	21000044 	addi	r4,r4,1
  804a20:	2015883a 	mov	r10,r4
  804a24:	2807883a 	mov	r3,r5
  804a28:	00000106 	br	804a30 <__strtok_r+0x48>
  804a2c:	383ff926 	beq	r7,zero,804a14 <__alt_mem_onchip_mem+0xff784a14>
  804a30:	19c00007 	ldb	r7,0(r3)
  804a34:	18c00044 	addi	r3,r3,1
  804a38:	41fffc1e 	bne	r8,r7,804a2c <__alt_mem_onchip_mem+0xff784a2c>
  804a3c:	40000726 	beq	r8,zero,804a5c <__strtok_r+0x74>
  804a40:	48000005 	stb	zero,0(r9)
  804a44:	32800015 	stw	r10,0(r6)
  804a48:	f800283a 	ret
  804a4c:	383fe71e 	bne	r7,zero,8049ec <__alt_mem_onchip_mem+0xff7849ec>
  804a50:	31000015 	stw	r4,0(r6)
  804a54:	10000005 	stb	zero,0(r2)
  804a58:	f800283a 	ret
  804a5c:	0015883a 	mov	r10,zero
  804a60:	32800015 	stw	r10,0(r6)
  804a64:	f800283a 	ret
  804a68:	31000017 	ldw	r4,0(r6)
  804a6c:	203fdf1e 	bne	r4,zero,8049ec <__alt_mem_onchip_mem+0xff7849ec>
  804a70:	0005883a 	mov	r2,zero
  804a74:	f800283a 	ret
  804a78:	30000015 	stw	zero,0(r6)
  804a7c:	0005883a 	mov	r2,zero
  804a80:	f800283a 	ret

00804a84 <strtok_r>:
  804a84:	01c00044 	movi	r7,1
  804a88:	08049e81 	jmpi	8049e8 <__strtok_r>

00804a8c <_strtol_r>:
  804a8c:	00802074 	movhi	r2,129
  804a90:	defff404 	addi	sp,sp,-48
  804a94:	10955e04 	addi	r2,r2,21880
  804a98:	dd400715 	stw	r21,28(sp)
  804a9c:	15400017 	ldw	r21,0(r2)
  804aa0:	dd800815 	stw	r22,32(sp)
  804aa4:	dd000615 	stw	r20,24(sp)
  804aa8:	dcc00515 	stw	r19,20(sp)
  804aac:	d9000015 	stw	r4,0(sp)
  804ab0:	dfc00b15 	stw	ra,44(sp)
  804ab4:	df000a15 	stw	fp,40(sp)
  804ab8:	ddc00915 	stw	r23,36(sp)
  804abc:	dc800415 	stw	r18,16(sp)
  804ac0:	dc400315 	stw	r17,12(sp)
  804ac4:	dc000215 	stw	r16,8(sp)
  804ac8:	2829883a 	mov	r20,r5
  804acc:	3027883a 	mov	r19,r6
  804ad0:	382d883a 	mov	r22,r7
  804ad4:	2809883a 	mov	r4,r5
  804ad8:	24000003 	ldbu	r16,0(r4)
  804adc:	24400044 	addi	r17,r4,1
  804ae0:	2007883a 	mov	r3,r4
  804ae4:	ac05883a 	add	r2,r21,r16
  804ae8:	10800043 	ldbu	r2,1(r2)
  804aec:	8809883a 	mov	r4,r17
  804af0:	1080020c 	andi	r2,r2,8
  804af4:	103ff81e 	bne	r2,zero,804ad8 <__alt_mem_onchip_mem+0xff784ad8>
  804af8:	00800b44 	movi	r2,45
  804afc:	80805826 	beq	r16,r2,804c60 <_strtol_r+0x1d4>
  804b00:	00800ac4 	movi	r2,43
  804b04:	80805a26 	beq	r16,r2,804c70 <_strtol_r+0x1e4>
  804b08:	0039883a 	mov	fp,zero
  804b0c:	b0004426 	beq	r22,zero,804c20 <_strtol_r+0x194>
  804b10:	00800404 	movi	r2,16
  804b14:	b0806026 	beq	r22,r2,804c98 <_strtol_r+0x20c>
  804b18:	b02f883a 	mov	r23,r22
  804b1c:	00a00034 	movhi	r2,32768
  804b20:	e025003a 	cmpeq	r18,fp,zero
  804b24:	14a5c83a 	sub	r18,r2,r18
  804b28:	b80b883a 	mov	r5,r23
  804b2c:	9009883a 	mov	r4,r18
  804b30:	0801f8c0 	call	801f8c <__umodsi3>
  804b34:	b80b883a 	mov	r5,r23
  804b38:	9009883a 	mov	r4,r18
  804b3c:	d8800115 	stw	r2,4(sp)
  804b40:	0801f280 	call	801f28 <__udivsi3>
  804b44:	ac07883a 	add	r3,r21,r16
  804b48:	18c00043 	ldbu	r3,1(r3)
  804b4c:	880b883a 	mov	r5,r17
  804b50:	000d883a 	mov	r6,zero
  804b54:	1a00010c 	andi	r8,r3,4
  804b58:	0009883a 	mov	r4,zero
  804b5c:	02800044 	movi	r10,1
  804b60:	027fffc4 	movi	r9,-1
  804b64:	d9c00117 	ldw	r7,4(sp)
  804b68:	40000e26 	beq	r8,zero,804ba4 <_strtol_r+0x118>
  804b6c:	843ff404 	addi	r16,r16,-48
  804b70:	8580120e 	bge	r16,r22,804bbc <_strtol_r+0x130>
  804b74:	32400526 	beq	r6,r9,804b8c <_strtol_r+0x100>
  804b78:	11002536 	bltu	r2,r4,804c10 <_strtol_r+0x184>
  804b7c:	20802326 	beq	r4,r2,804c0c <_strtol_r+0x180>
  804b80:	25c9383a 	mul	r4,r4,r23
  804b84:	01800044 	movi	r6,1
  804b88:	8109883a 	add	r4,r16,r4
  804b8c:	2c000003 	ldbu	r16,0(r5)
  804b90:	29400044 	addi	r5,r5,1
  804b94:	ac07883a 	add	r3,r21,r16
  804b98:	18c00043 	ldbu	r3,1(r3)
  804b9c:	1a00010c 	andi	r8,r3,4
  804ba0:	403ff21e 	bne	r8,zero,804b6c <__alt_mem_onchip_mem+0xff784b6c>
  804ba4:	18c000cc 	andi	r3,r3,3
  804ba8:	18000426 	beq	r3,zero,804bbc <_strtol_r+0x130>
  804bac:	1a801a26 	beq	r3,r10,804c18 <_strtol_r+0x18c>
  804bb0:	00c015c4 	movi	r3,87
  804bb4:	80e1c83a 	sub	r16,r16,r3
  804bb8:	85bfee16 	blt	r16,r22,804b74 <__alt_mem_onchip_mem+0xff784b74>
  804bbc:	00bfffc4 	movi	r2,-1
  804bc0:	30801e26 	beq	r6,r2,804c3c <_strtol_r+0x1b0>
  804bc4:	e0001b1e 	bne	fp,zero,804c34 <_strtol_r+0x1a8>
  804bc8:	2005883a 	mov	r2,r4
  804bcc:	98000326 	beq	r19,zero,804bdc <_strtol_r+0x150>
  804bd0:	3000211e 	bne	r6,zero,804c58 <_strtol_r+0x1cc>
  804bd4:	a00b883a 	mov	r5,r20
  804bd8:	99400015 	stw	r5,0(r19)
  804bdc:	dfc00b17 	ldw	ra,44(sp)
  804be0:	df000a17 	ldw	fp,40(sp)
  804be4:	ddc00917 	ldw	r23,36(sp)
  804be8:	dd800817 	ldw	r22,32(sp)
  804bec:	dd400717 	ldw	r21,28(sp)
  804bf0:	dd000617 	ldw	r20,24(sp)
  804bf4:	dcc00517 	ldw	r19,20(sp)
  804bf8:	dc800417 	ldw	r18,16(sp)
  804bfc:	dc400317 	ldw	r17,12(sp)
  804c00:	dc000217 	ldw	r16,8(sp)
  804c04:	dec00c04 	addi	sp,sp,48
  804c08:	f800283a 	ret
  804c0c:	3c3fdc0e 	bge	r7,r16,804b80 <__alt_mem_onchip_mem+0xff784b80>
  804c10:	01bfffc4 	movi	r6,-1
  804c14:	003fdd06 	br	804b8c <__alt_mem_onchip_mem+0xff784b8c>
  804c18:	00c00dc4 	movi	r3,55
  804c1c:	003fe506 	br	804bb4 <__alt_mem_onchip_mem+0xff784bb4>
  804c20:	00800c04 	movi	r2,48
  804c24:	80801626 	beq	r16,r2,804c80 <_strtol_r+0x1f4>
  804c28:	05800284 	movi	r22,10
  804c2c:	b02f883a 	mov	r23,r22
  804c30:	003fba06 	br	804b1c <__alt_mem_onchip_mem+0xff784b1c>
  804c34:	0109c83a 	sub	r4,zero,r4
  804c38:	003fe306 	br	804bc8 <__alt_mem_onchip_mem+0xff784bc8>
  804c3c:	d9000017 	ldw	r4,0(sp)
  804c40:	00c00884 	movi	r3,34
  804c44:	e005003a 	cmpeq	r2,fp,zero
  804c48:	20c00015 	stw	r3,0(r4)
  804c4c:	00e00034 	movhi	r3,32768
  804c50:	1885c83a 	sub	r2,r3,r2
  804c54:	983fe126 	beq	r19,zero,804bdc <__alt_mem_onchip_mem+0xff784bdc>
  804c58:	297fffc4 	addi	r5,r5,-1
  804c5c:	003fde06 	br	804bd8 <__alt_mem_onchip_mem+0xff784bd8>
  804c60:	1c400084 	addi	r17,r3,2
  804c64:	1c000043 	ldbu	r16,1(r3)
  804c68:	07000044 	movi	fp,1
  804c6c:	003fa706 	br	804b0c <__alt_mem_onchip_mem+0xff784b0c>
  804c70:	1c400084 	addi	r17,r3,2
  804c74:	1c000043 	ldbu	r16,1(r3)
  804c78:	0039883a 	mov	fp,zero
  804c7c:	003fa306 	br	804b0c <__alt_mem_onchip_mem+0xff784b0c>
  804c80:	88800003 	ldbu	r2,0(r17)
  804c84:	00c01604 	movi	r3,88
  804c88:	108037cc 	andi	r2,r2,223
  804c8c:	10c00826 	beq	r2,r3,804cb0 <_strtol_r+0x224>
  804c90:	05800204 	movi	r22,8
  804c94:	003fa006 	br	804b18 <__alt_mem_onchip_mem+0xff784b18>
  804c98:	00800c04 	movi	r2,48
  804c9c:	80bf9e1e 	bne	r16,r2,804b18 <__alt_mem_onchip_mem+0xff784b18>
  804ca0:	88800003 	ldbu	r2,0(r17)
  804ca4:	00c01604 	movi	r3,88
  804ca8:	108037cc 	andi	r2,r2,223
  804cac:	10ff9a1e 	bne	r2,r3,804b18 <__alt_mem_onchip_mem+0xff784b18>
  804cb0:	05c00404 	movi	r23,16
  804cb4:	8c000043 	ldbu	r16,1(r17)
  804cb8:	b82d883a 	mov	r22,r23
  804cbc:	8c400084 	addi	r17,r17,2
  804cc0:	003f9606 	br	804b1c <__alt_mem_onchip_mem+0xff784b1c>

00804cc4 <strtol>:
  804cc4:	00802074 	movhi	r2,129
  804cc8:	10955b04 	addi	r2,r2,21868
  804ccc:	300f883a 	mov	r7,r6
  804cd0:	280d883a 	mov	r6,r5
  804cd4:	200b883a 	mov	r5,r4
  804cd8:	11000017 	ldw	r4,0(r2)
  804cdc:	0804a8c1 	jmpi	804a8c <_strtol_r>

00804ce0 <___vfprintf_internal_r>:
  804ce0:	deffb804 	addi	sp,sp,-288
  804ce4:	dfc04715 	stw	ra,284(sp)
  804ce8:	ddc04515 	stw	r23,276(sp)
  804cec:	dd404315 	stw	r21,268(sp)
  804cf0:	d9002c15 	stw	r4,176(sp)
  804cf4:	282f883a 	mov	r23,r5
  804cf8:	302b883a 	mov	r21,r6
  804cfc:	d9c02d15 	stw	r7,180(sp)
  804d00:	df004615 	stw	fp,280(sp)
  804d04:	dd804415 	stw	r22,272(sp)
  804d08:	dd004215 	stw	r20,264(sp)
  804d0c:	dcc04115 	stw	r19,260(sp)
  804d10:	dc804015 	stw	r18,256(sp)
  804d14:	dc403f15 	stw	r17,252(sp)
  804d18:	dc003e15 	stw	r16,248(sp)
  804d1c:	08092000 	call	809200 <_localeconv_r>
  804d20:	10800017 	ldw	r2,0(r2)
  804d24:	1009883a 	mov	r4,r2
  804d28:	d8803415 	stw	r2,208(sp)
  804d2c:	08049380 	call	804938 <strlen>
  804d30:	d8803715 	stw	r2,220(sp)
  804d34:	d8802c17 	ldw	r2,176(sp)
  804d38:	10000226 	beq	r2,zero,804d44 <___vfprintf_internal_r+0x64>
  804d3c:	10800e17 	ldw	r2,56(r2)
  804d40:	1000f926 	beq	r2,zero,805128 <___vfprintf_internal_r+0x448>
  804d44:	b880030b 	ldhu	r2,12(r23)
  804d48:	10c8000c 	andi	r3,r2,8192
  804d4c:	1800061e 	bne	r3,zero,804d68 <___vfprintf_internal_r+0x88>
  804d50:	b9001917 	ldw	r4,100(r23)
  804d54:	00f7ffc4 	movi	r3,-8193
  804d58:	10880014 	ori	r2,r2,8192
  804d5c:	20c6703a 	and	r3,r4,r3
  804d60:	b880030d 	sth	r2,12(r23)
